(dp1
S'output'
p2
S"<type 'exceptions.NameError'> name 'custom_auth' is not defined"
p3
sS'layer'
p4
S'/home/user/Local Disk E/COP290/assignment2/GRS_Grievances_Resolution_System/web2py/applications/GRS/models/db.py'
p5
sS'code'
p6
S"# -*- coding: utf-8 -*-\n\n#########################################################################\n## This scaffolding model makes your app work on Google App Engine too\n## File is released under public domain and you can use without limitations\n#########################################################################\n\n## if SSL/HTTPS is properly configured and you want all HTTP requests to\n## be redirected to HTTPS, uncomment the line below:\n# request.requires_https()\n\n## app configuration made easy. Look inside private/appconfig.ini\nfrom gluon.contrib.appconfig import AppConfig\n## once in production, remove reload=True to gain full speed\nmyconf = AppConfig(reload=True)\n\n\n\nif not request.env.web2py_runtime_gae:\n    ## if NOT running on Google App Engine use SQLite or other DB\n    db = DAL(myconf.take('db.uri'), pool_size=myconf.take('db.pool_size', cast=int), check_reserved=['all'], migrate=True)\nelse:\n    ## connect to Google BigTable (optional 'google:datastore://namespace')\n    db = DAL('google:datastore+ndb', migrate=True)\n    ## store sessions and tickets there\n    session.connect(request, response, db=db)\n    ## or store session in Memcache, Redis, etc.\n    ## from gluon.contrib.memdb import MEMDB\n    ## from google.appengine.api.memcache import Client\n    ## session.connect(request, response, db = MEMDB(Client()))\n\n## by default give a view/generic.extension to all actions from localhost\n## none otherwise. a pattern can be 'controller/function.extension'\nresponse.generic_patterns = ['*'] # if request.is_local else []\n## choose a style for forms\nresponse.formstyle = myconf.take('forms.formstyle')  # or 'bootstrap3_stacked' or 'bootstrap2' or other\nresponse.form_label_separator = myconf.take('forms.separator')\n\n\n## (optional) optimize handling of static files\n# response.optimize_css = 'concat,minify,inline'\n# response.optimize_js = 'concat,minify,inline'\n## (optional) static assets folder versioning\n# response.static_version = '0.0.0'\n#########################################################################\n## Here is sample code if you need for\n## - email capabilities\n## - authentication (registration, login, logout, ... )\n## - authorization (role based authorization)\n## - services (xml, csv, json, xmlrpc, jsonrpc, amf, rss)\n## - old style crud actions\n## (more options discussed in gluon/tools.py)\n#########################################################################\n\nfrom gluon.tools import Auth, Service, PluginManager\n\nauth = Auth(db)\nservice = Service()\nplugins = PluginManager()\n\n## create all tables needed by auth if not custom tables\nauth.define_tables(username=False, signature=False)\n\n## configure email\nmail = auth.settings.mailer\nmail.settings.server = 'logging' if request.is_local else myconf.take('smtp.sender')\nmail.settings.sender = myconf.take('smtp.sender')\nmail.settings.login = myconf.take('smtp.login')\n\n## configure auth policy\nauth.settings.registration_requires_verification = False\nauth.settings.registration_requires_approval = False\nauth.settings.reset_password_requires_verification = True\n\n#########################################################################\n## Define your tables below (or better in another model file) for example\n##\n## >>> db.define_table('mytable',Field('myfield','string'))\n##\n## Fields can be 'string','text','password','integer','double','boolean'\n##       'date','time','datetime','blob','upload', 'reference TABLENAME'\n## There is an implicit 'id integer autoincrement' field\n## Consult manual for more options, validators, etc.\n##\n## More API examples for controllers:\n##\n## >>> db.mytable.insert(myfield='value')\n## >>> rows=db(db.mytable.myfield=='value').select(db.mytable.ALL)\n## >>> for row in rows: print row.id, row.myfield\n#########################################################################\n\n## after defining tables, uncomment below to enable auditing\n# auth.enable_record_versioning(db)\n\nfrom datetime import datetime,timedelta\n\n\ndb.define_table(\n    'hostels',\n    Field('hostel_admin_group_id', 'integer'),\n    Field('hostel_residents_group_id', 'integer'),\n    Field('hostel_name', length=32, unique=True),\n )\n\n\ndb.define_table(\n    'users',\n    Field('username', length=32, unique=True),\n    Field('password', 'password', length=32, readable=False, label='Password'),\n    Field('first_name', 'string', length=32, default=''),\n    Field('last_name', 'string', length=32, default=''),\n    Field('email_id', 'string', length=32),\n    Field('degree_name', 'string', length=32),\n    Field('hostel_id', db.hostels),\n    Field('picture_id', 'integer'),\n    Field('year_of_degree', 'integer'),\n )\n\n\ncustom_auth_table = db['users']\n\nauth.settings.table_user = custom_auth_table\n#auth.settings.table_user_name = 'users'    #Very important to mention\n#auth.settings.table_group_name = 'user_group'\n#auth.settings.table_membership_name = 'user_membership'\n#auth.settings.table_permission_name = 'user_permission'\n#auth.settings.table_event_name = 'user_event'\ncustom_auth.settings.login_userfield = 'first_name'        #the loginfield will be username\n#auth.settings.login_userfield = 'username'        #the loginfield will be username\n#auth.define_tables(username=False)    #Creating the table\n#auth.define_tables(migrate=False)\n\n\ndb.define_table(\n    'group_members',\n    Field('user_id', db.users),\n    Field('group_id', 'integer'),\n    Field('member_post', 'integer'),\n    Field('is_validated', 'boolean'),\n )\n\n\ndb.define_table(\n    'hostel_management',\n    Field('hostel_id', db.hostels),\n    Field('mess_secretary_user_id', db.users),\n    Field('house_secretary_user_id', db.users),\n    Field('maintenance_secretary_user_id', db.users),\n    Field('sports_secretary_user_id', db.users),\n    Field('cultural_secretary_user_id', db.users),\n )\n\n\ndb.define_table(\n    'complaint_levels',\n    Field('complaint_level_name', 'string', length=64),\n)\n\n\ndb.define_table(\n    'complaint_domain',\n    Field('complaint_domain_name', 'string', length=64),\n    Field('complaint_level_id', db.complaint_levels),\n)\n\n\ndb.define_table(\n    'complaints',\n    Field('complaint_level_id', db.complaint_levels),\n    Field('complaint_domain_id', 'integer'),\n    Field('complaint_date', 'datetime', default=datetime.now),\n    Field('complaint_title', 'string', length=256),\n    Field('complaint_details', 'string', length=2048),\n    Field('date_work_taken_on', 'datetime', default=datetime.now),\n    Field('complaint_level_id', 'integer'),\n    Field('status_id', 'integer'),\n    Field('posted_by', db.users),\n    Field('date_posted', 'datetime', default=datetime.now),\n    Field('upvotes_count', 'integer'),\n    Field('downvotes_count', 'integer'),\n    Field('date_resolved', 'datetime', default=datetime.now),\n    Field('photo_id', 'integer'),\n    Field('redirected_by_user_id', db.users),\n    Field('redirected_to_user_id', db.users),\n)\n\n\ndb.define_table(\n    'pictures',\n    Field('picture_name', 'upload'),\n    Field('picture_caption', 'string', length=512),\n)\n\n\ndb.define_table(\n    'votes',\n    Field('user_id', db.users),\n    Field('vote_type', 'integer'), #0 downvote ,1 upvote\n    Field('complaint_id', db.complaints),\n    Field('detailed_status', 'string', length=2048),\n)\n\n\ndb.define_table(\n    'comments',\n    Field('user_id', db.users),\n    Field('comment_made', 'string', length=2048),\n    Field('date_commented', 'datetime', default=datetime.now),\n    Field('complaint_id', db.complaints),\n    Field('detailed_status', 'string', length=2048),\n)\n\n\ndb.define_table(\n    'complaint_status',\n    Field('status_name', 'string', length=512),\n    Field('detailed_status', 'string', length=2048),\n    Field('complaint_id', db.complaints),\n)\n\n\ndb.define_table(\n    'status_comments',\n    Field('user_id', db.users),\n    Field('comment_made', 'string', length=2048),\n    Field('date_commented', 'datetime', default=datetime.now),\n    Field('status_id', db.complaint_status),\n)\n\n\ndb.define_table(\n    'bookmarks',\n    Field('complaint_id', db.complaints),\n    Field('user_id', db.users),\n)\n\n\ndb.define_table(\n    'complaints_concerning_user',\n    Field('complaint_id', db.complaints),\n    Field('id_type', 'integer'),\t#0 user 1 group\n    Field('group_id', 'integer'),\n    Field('user_id', db.users),\n    Field('is_hidden', 'boolean'),\n)\n\n\ndb.define_table(\n    'complaints_with_resolving_rights_to_user',\n    Field('complaint_id', db.complaints),\n    Field('id_type', 'integer'),\n    Field('group_id', 'integer'),\n    Field('user_id', db.users),\n    Field('is_hidden', 'boolean'),\n)\n\n\ndb.define_table(\n    'complaints_made_to_user',\n    Field('complaint_id', db.complaints),\n    Field('id_type', 'integer'),\n    Field('group_id', 'integer'),\n    Field('user_id', db.users),\n    Field('is_hidden', 'boolean'),\n)\n\n"
p7
sS'snapshot'
p8
(dp9
S'exception'
p10
(dp11
S'__hash__'
p12
S"<method-wrapper '__hash__' of exceptions.NameError object>"
p13
sS'__setattr__'
p14
S"<method-wrapper '__setattr__' of exceptions.NameError object>"
p15
sS'__reduce_ex__'
p16
S'<built-in method __reduce_ex__ of exceptions.NameError object>'
p17
sS'__getslice__'
p18
S"<method-wrapper '__getslice__' of exceptions.NameError object>"
p19
sS'__getitem__'
p20
S"<method-wrapper '__getitem__' of exceptions.NameError object>"
p21
sS'__setstate__'
p22
S'<built-in method __setstate__ of exceptions.NameError object>'
p23
sS'args'
p24
S'("name \'custom_auth\' is not defined",)'
p25
sS'__reduce__'
p26
S'<built-in method __reduce__ of exceptions.NameError object>'
p27
sS'__str__'
p28
S"<method-wrapper '__str__' of exceptions.NameError object>"
p29
sS'__format__'
p30
S'<built-in method __format__ of exceptions.NameError object>'
p31
sS'__getattribute__'
p32
S"<method-wrapper '__getattribute__' of exceptions.NameError object>"
p33
sS'__class__'
p34
S"<type 'exceptions.NameError'>"
p35
sS'__unicode__'
p36
S'<built-in method __unicode__ of exceptions.NameError object>'
p37
sS'__delattr__'
p38
S"<method-wrapper '__delattr__' of exceptions.NameError object>"
p39
sS'__subclasshook__'
p40
S'<built-in method __subclasshook__ of type object>'
p41
sS'__repr__'
p42
S"<method-wrapper '__repr__' of exceptions.NameError object>"
p43
sS'__dict__'
p44
S'{}'
p45
sS'__sizeof__'
p46
S'<built-in method __sizeof__ of exceptions.NameError object>'
p47
sS'__doc__'
p48
S"'Name not found globally.'"
p49
sS'__init__'
p50
S"<method-wrapper '__init__' of exceptions.NameError object>"
p51
sS'__new__'
p52
S'<built-in method __new__ of type object>'
p53
ssS'evalue'
p54
S"name 'custom_auth' is not defined"
p55
sS'request'
p56
cgluon.html
XML_unpickle
p57
(S'sxs\x00\x00<div><table><tr><td style="font-weight:bold;vertical-align:top;">ajax</td><td style="vertical-align:top;">:</td><td><div>False</div></td></tr><tr><td style="font-weight:bold;vertical-align:top;">application</td><td style="vertical-align:top;">:</td><td><div>GRS</div></td></tr><tr><td style="font-weight:bold;vertical-align:top;">args</td><td style="vertical-align:top;">:</td><td><div><table></table></div></td></tr><tr><td style="font-weight:bold;vertical-align:top;">cid</td><td style="vertical-align:top;">:</td><td><div>None</div></td></tr><tr><td style="font-weight:bold;vertical-align:top;">client</td><td style="vertical-align:top;">:</td><td><div>127.0.0.1</div></td></tr><tr><td style="font-weight:bold;vertical-align:top;">controller</td><td style="vertical-align:top;">:</td><td><div>user</div></td></tr><tr><td style="font-weight:bold;vertical-align:top;">cookies</td><td style="vertical-align:top;">:</td><td><div><table><tr><td style="font-weight:bold;vertical-align:top;">gsScrollPos</td><td style="vertical-align:top;">:</td><td><div><table><tr><td style="font-weight:bold;vertical-align:top;">comment</td><td style="vertical-align:top;">:</td><td><div></div></td></tr><tr><td style="font-weight:bold;vertical-align:top;">domain</td><td style="vertical-align:top;">:</td><td><div></div></td></tr><tr><td style="font-weight:bold;vertical-align:top;">expires</td><td style="vertical-align:top;">:</td><td><div></div></td></tr><tr><td style="font-weight:bold;vertical-align:top;">httponly</td><td style="vertical-align:top;">:</td><td><div></div></td></tr><tr><td style="font-weight:bold;vertical-align:top;">max-age</td><td style="vertical-align:top;">:</td><td><div></div></td></tr><tr><td style="font-weight:bold;vertical-align:top;">path</td><td style="vertical-align:top;">:</td><td><div></div></td></tr><tr><td style="font-weight:bold;vertical-align:top;">secure</td><td style="vertical-align:top;">:</td><td><div></div></td></tr><tr><td style="font-weight:bold;vertical-align:top;">version</td><td style="vertical-align:top;">:</td><td><div></div></td></tr></table></div></td></tr><tr><td style="font-weight:bold;vertical-align:top;">session_id_admin</td><td style="vertical-align:top;">:</td><td><div>127.0.0.1-02afdf41-3dbe-47a9-92fd-e1e0b18915fb<table><tr><td style="font-weight:bold;vertical-align:top;">comment</td><td style="vertical-align:top;">:</td><td><div></div></td></tr><tr><td style="font-weight:bold;vertical-align:top;">domain</td><td style="vertical-align:top;">:</td><td><div></div></td></tr><tr><td style="font-weight:bold;vertical-align:top;">expires</td><td style="vertical-align:top;">:</td><td><div></div></td></tr><tr><td style="font-weight:bold;vertical-align:top;">httponly</td><td style="vertical-align:top;">:</td><td><div></div></td></tr><tr><td style="font-weight:bold;vertical-align:top;">max-age</td><td style="vertical-align:top;">:</td><td><div></div></td></tr><tr><td style="font-weight:bold;vertical-align:top;">path</td><td style="vertical-align:top;">:</td><td><div></div></td></tr><tr><td style="font-weight:bold;vertical-align:top;">secure</td><td style="vertical-align:top;">:</td><td><div></div></td></tr><tr><td style="font-weight:bold;vertical-align:top;">version</td><td style="vertical-align:top;">:</td><td><div></div></td></tr></table></div></td></tr><tr><td style="font-weight:bold;vertical-align:top;">session_id_grievances</td><td style="vertical-align:top;">:</td><td><div>127.0.0.1-39bee78a-8e5b-4d17-ad2b-fa503b854ff7<table><tr><td style="font-weight:bold;vertical-align:top;">comment</td><td style="vertical-align:top;">:</td><td><div></div></td></tr><tr><td style="font-weight:bold;vertical-align:top;">domain</td><td style="vertical-align:top;">:</td><td><div></div></td></tr><tr><td style="font-weight:bold;vertical-align:top;">expires</td><td style="vertical-align:top;">:</td><td><div></div></td></tr><tr><td style="font-weight:bold;vertical-align:top;">httponly</td><td style="vertical-align:top;">:</td><td><div></div></td></tr><tr><td style="font-weight:bold;vertical-align:top;">max-age</td><td style="vertical-align:top;">:</td><td><div></div></td></tr><tr><td style="font-weight:bold;vertical-align:top;">path</td><td style="vertical-align:top;">:</td><td><div></div></td></tr><tr><td style="font-weight:bold;vertical-align:top;">secure</td><td style="vertical-align:top;">:</td><td><div></div></td></tr><tr><td style="font-weight:bold;vertical-align:top;">version</td><td style="vertical-align:top;">:</td><td><div></div></td></tr></table></div></td></tr><tr><td style="font-weight:bold;vertical-align:top;">session_id_grs</td><td style="vertical-align:top;">:</td><td><div>127.0.0.1-1ef657fd-3a6d-4af6-8842-edda3f0931a8<table><tr><td style="font-weight:bold;vertical-align:top;">comment</td><td style="vertical-align:top;">:</td><td><div></div></td></tr><tr><td style="font-weight:bold;vertical-align:top;">domain</td><td style="vertical-align:top;">:</td><td><div></div></td></tr><tr><td style="font-weight:bold;vertical-align:top;">expires</td><td style="vertical-align:top;">:</td><td><div></div></td></tr><tr><td style="font-weight:bold;vertical-align:top;">httponly</td><td style="vertical-align:top;">:</td><td><div></div></td></tr><tr><td style="font-weight:bold;vertical-align:top;">max-age</td><td style="vertical-align:top;">:</td><td><div></div></td></tr><tr><td style="font-weight:bold;vertical-align:top;">path</td><td style="vertical-align:top;">:</td><td><div></div></td></tr><tr><td style="font-weight:bold;vertical-align:top;">secure</td><td style="vertical-align:top;">:</td><td><div></div></td></tr><tr><td style="font-weight:bold;vertical-align:top;">version</td><td style="vertical-align:top;">:</td><td><div></div></td></tr></table></div></td></tr><tr><td style="font-weight:bold;vertical-align:top;">session_id_moodleplus</td><td style="vertical-align:top;">:</td><td><div>127.0.0.1-1da20854-4832-4b2c-a05d-3e22d05c8dea<table><tr><td style="font-weight:bold;vertical-align:top;">comment</td><td style="vertical-align:top;">:</td><td><div></div></td></tr><tr><td style="font-weight:bold;vertical-align:top;">domain</td><td style="vertical-align:top;">:</td><td><div></div></td></tr><tr><td style="font-weight:bold;vertical-align:top;">expires</td><td style="vertical-align:top;">:</td><td><div></div></td></tr><tr><td style="font-weight:bold;vertical-align:top;">httponly</td><td style="vertical-align:top;">:</td><td><div></div></td></tr><tr><td style="font-weight:bold;vertical-align:top;">max-age</td><td style="vertical-align:top;">:</td><td><div></div></td></tr><tr><td style="font-weight:bold;vertical-align:top;">path</td><td style="vertical-align:top;">:</td><td><div></div></td></tr><tr><td style="font-weight:bold;vertical-align:top;">secure</td><td style="vertical-align:top;">:</td><td><div></div></td></tr><tr><td style="font-weight:bold;vertical-align:top;">version</td><td style="vertical-align:top;">:</td><td><div></div></td></tr></table></div></td></tr><tr><td style="font-weight:bold;vertical-align:top;">session_id_sample1</td><td style="vertical-align:top;">:</td><td><div>127.0.0.1-69257c23-3e3c-4433-8daa-b0ad4e8056af<table><tr><td style="font-weight:bold;vertical-align:top;">comment</td><td style="vertical-align:top;">:</td><td><div></div></td></tr><tr><td style="font-weight:bold;vertical-align:top;">domain</td><td style="vertical-align:top;">:</td><td><div></div></td></tr><tr><td style="font-weight:bold;vertical-align:top;">expires</td><td style="vertical-align:top;">:</td><td><div></div></td></tr><tr><td style="font-weight:bold;vertical-align:top;">httponly</td><td style="vertical-align:top;">:</td><td><div></div></td></tr><tr><td style="font-weight:bold;vertical-align:top;">max-age</td><td style="vertical-align:top;">:</td><td><div></div></td></tr><tr><td style="font-weight:bold;vertical-align:top;">path</td><td style="vertical-align:top;">:</td><td><div></div></td></tr><tr><td style="font-weight:bold;vertical-align:top;">secure</td><td style="vertical-align:top;">:</td><td><div></div></td></tr><tr><td style="font-weight:bold;vertical-align:top;">version</td><td style="vertical-align:top;">:</td><td><div></div></td></tr></table></div></td></tr><tr><td style="font-weight:bold;vertical-align:top;">session_id_welcome</td><td style="vertical-align:top;">:</td><td><div>127.0.0.1-f33ff9fc-48fd-4105-928f-004acb56770e<table><tr><td style="font-weight:bold;vertical-align:top;">comment</td><td style="vertical-align:top;">:</td><td><div></div></td></tr><tr><td style="font-weight:bold;vertical-align:top;">domain</td><td style="vertical-align:top;">:</td><td><div></div></td></tr><tr><td style="font-weight:bold;vertical-align:top;">expires</td><td style="vertical-align:top;">:</td><td><div></div></td></tr><tr><td style="font-weight:bold;vertical-align:top;">httponly</td><td style="vertical-align:top;">:</td><td><div></div></td></tr><tr><td style="font-weight:bold;vertical-align:top;">max-age</td><td style="vertical-align:top;">:</td><td><div></div></td></tr><tr><td style="font-weight:bold;vertical-align:top;">path</td><td style="vertical-align:top;">:</td><td><div></div></td></tr><tr><td style="font-weight:bold;vertical-align:top;">secure</td><td style="vertical-align:top;">:</td><td><div></div></td></tr><tr><td style="font-weight:bold;vertical-align:top;">version</td><td style="vertical-align:top;">:</td><td><div></div></td></tr></table></div></td></tr></table></div></td></tr><tr><td style="font-weight:bold;vertical-align:top;">env</td><td style="vertical-align:top;">:</td><td><div><table><tr><td style="font-weight:bold;vertical-align:top;">HTTP_ACCEPT</td><td style="vertical-align:top;">:</td><td><div>text/html,application/xhtml+xml,application/xml;q=0.9,image/webp,*/*;q=0.8</div></td></tr><tr><td style="font-weight:bold;vertical-align:top;">HTTP_ACCEPT_ENCODING</td><td style="vertical-align:top;">:</td><td><div>gzip, deflate, sdch</div></td></tr><tr><td style="font-weight:bold;vertical-align:top;">HTTP_ACCEPT_LANGUAGE</td><td style="vertical-align:top;">:</td><td><div>en-US,en;q=0.8</div></td></tr><tr><td style="font-weight:bold;vertical-align:top;">HTTP_CACHE_CONTROL</td><td style="vertical-align:top;">:</td><td><div>max-age=0</div></td></tr><tr><td style="font-weight:bold;vertical-align:top;">HTTP_CONNECTION</td><td style="vertical-align:top;">:</td><td><div>keep-alive</div></td></tr><tr><td style="font-weight:bold;vertical-align:top;">HTTP_COOKIE</td><td style="vertical-align:top;">:</td><td><div>gsScrollPos=; session_id_grievances=127.0.0.1-39bee78a-8e5b-4d17-ad2b-fa503b854ff7; session_id_moodleplus=127.0.0.1-1da20854-4832-4b2c-a05d-3e22d05c8dea; session_id_sample1=127.0.0.1-69257c23-3e3c-4433-8daa-b0ad4e8056af; _ga=GA1.1.333590026.1458794726; session_id_admin=127.0.0.1-02afdf41-3dbe-47a9-92fd-e1e0b18915fb; session_id_welcome=127.0.0.1-f33ff9fc-48fd-4105-928f-004acb56770e; session_id_grs=127.0.0.1-1ef657fd-3a6d-4af6-8842-edda3f0931a8</div></td></tr><tr><td style="font-weight:bold;vertical-align:top;">HTTP_HOST</td><td style="vertical-align:top;">:</td><td><div>127.0.0.1:8000</div></td></tr><tr><td style="font-weight:bold;vertical-align:top;">HTTP_UPGRADE_INSECURE_REQUESTS</td><td style="vertical-align:top;">:</td><td><div>1</div></td></tr><tr><td style="font-weight:bold;vertical-align:top;">HTTP_USER_AGENT</td><td style="vertical-align:top;">:</td><td><div>Mozilla/5.0 (X11; Linux x86_64) AppleWebKit/537.36 (KHTML, like Gecko) Ubuntu Chromium/48.0.2564.116 Chrome/48.0.2564.116 Safari/537.36</div></td></tr><tr><td style="font-weight:bold;vertical-align:top;">PATH_INFO</td><td style="vertical-align:top;">:</td><td><div>/GRS/user/login</div></td></tr><tr><td style="font-weight:bold;vertical-align:top;">QUERY_STRING</td><td style="vertical-align:top;">:</td><td><div>username=user&amp;password=12345</div></td></tr><tr><td style="font-weight:bold;vertical-align:top;">REMOTE_ADDR</td><td style="vertical-align:top;">:</td><td><div>127.0.0.1</div></td></tr><tr><td style="font-weight:bold;vertical-align:top;">REMOTE_PORT</td><td style="vertical-align:top;">:</td><td><div>52660</div></td></tr><tr><td style="font-weight:bold;vertical-align:top;">REQUEST_METHOD</td><td style="vertical-align:top;">:</td><td><div>GET</div></td></tr><tr><td style="font-weight:bold;vertical-align:top;">SCRIPT_NAME</td><td style="vertical-align:top;">:</td><td><div></div></td></tr><tr><td style="font-weight:bold;vertical-align:top;">SERVER_NAME</td><td style="vertical-align:top;">:</td><td><div>user-Z5WAH</div></td></tr><tr><td style="font-weight:bold;vertical-align:top;">SERVER_PORT</td><td style="vertical-align:top;">:</td><td><div>8000</div></td></tr><tr><td style="font-weight:bold;vertical-align:top;">SERVER_PROTOCOL</td><td style="vertical-align:top;">:</td><td><div>HTTP/1.1</div></td></tr><tr><td style="font-weight:bold;vertical-align:top;">SERVER_SOFTWARE</td><td style="vertical-align:top;">:</td><td><div>Rocket 1.2.6</div></td></tr><tr><td style="font-weight:bold;vertical-align:top;">app_folders</td><td style="vertical-align:top;">:</td><td><div>set([&#x27;/home/user/Local Disk E/COP290/assignment2/GRS_Grievances_Resolution_System/web2py/applications/welcome/&#x27;, &#x27;/home/user/Local Disk E/COP290/assignment2/GRS_Grievances_Resolution_System/web2py/applications/GRS/&#x27;, &#x27;/home/user/Local Disk E/COP290/assignment2/GRS_Grievances_Resolution_System/web2py/applications/admin/&#x27;])</div></td></tr><tr><td style="font-weight:bold;vertical-align:top;">applications_parent</td><td style="vertical-align:top;">:</td><td><div>/home/user/Local Disk E/COP290/assignment2/GRS_Grievances_Resolution_System/web2py</div></td></tr><tr><td style="font-weight:bold;vertical-align:top;">cmd_args</td><td style="vertical-align:top;">:</td><td><div><table></table></div></td></tr><tr><td style="font-weight:bold;vertical-align:top;">cmd_options</td><td style="vertical-align:top;">:</td><td><div>&lt;Values at 0x7fc3d1892908: {&#x27;verbose&#x27;: False, &#x27;ip&#x27;: &#x27;127.0.0.1&#x27;, &#x27;debuglevel&#x27;: 30, &#x27;with_scheduler&#x27;: False, &#x27;shutdown_timeout&#x27;: 5, &#x27;taskbar&#x27;: False, &#x27;with_coverage&#x27;: False, &#x27;pid_filename&#x27;: &#x27;httpserver.pid&#x27;, &#x27;maxthreads&#x27;: None, &#x27;softcron&#x27;: False, &#x27;server_name&#x27;: &#x27;user-Z5WAH&#x27;, &#x27;bpython&#x27;: False, &#x27;nogui&#x27;: False, &#x27;port&#x27;: 8000, &#x27;print_errors&#x27;: False, &#x27;extcron&#x27;: False, &#x27;runcron&#x27;: False, &#x27;run_system_tests&#x27;: False, &#x27;test&#x27;: None, &#x27;folder&#x27;: &#x27;/home/user/Local Disk E/COP290/assignment2/GRS_Grievances_Resolution_System/web2py&#x27;, &#x27;config&#x27;: &#x27;&#x27;, &#x27;minthreads&#x27;: None, &#x27;shell&#x27;: None, &#x27;run&#x27;: &#x27;&#x27;, &#x27;log_filename&#x27;: &#x27;httpserver.log&#x27;, &#x27;profiler_dir&#x27;: None, &#x27;args&#x27;: [&#x27;&#x27;], &#x27;socket_timeout&#x27;: 5, &#x27;ssl_ca_certificate&#x27;: None, &#x27;scheduler&#x27;: None, &#x27;interfaces&#x27;: None, &#x27;ssl_private_key&#x27;: &#x27;&#x27;, &#x27;gae&#x27;: None, &#x27;password&#x27;: &#x27;******&#x27;, &#x27;request_queue_size&#x27;: 5, &#x27;ssl_certificate&#x27;: &#x27;&#x27;, &#x27;cronjob&#x27;: False, &#x27;numthreads&#x27;: None, &#x27;quiet&#x27;: False, &#x27;import_models&#x27;: False, &#x27;timeout&#x27;: 10, &#x27;plain&#x27;: False, &#x27;nobanner&#x27;: False}&gt;</div></td></tr><tr><td style="font-weight:bold;vertical-align:top;">db_sessions</td><td style="vertical-align:top;">:</td><td><div>set([])</div></td></tr><tr><td style="font-weight:bold;vertical-align:top;">debugging</td><td style="vertical-align:top;">:</td><td><div>True</div></td></tr><tr><td style="font-weight:bold;vertical-align:top;">gluon_parent</td><td style="vertical-align:top;">:</td><td><div>/home/user/Local Disk E/COP290/assignment2/GRS_Grievances_Resolution_System/web2py</div></td></tr><tr><td style="font-weight:bold;vertical-align:top;">http_accept</td><td style="vertical-align:top;">:</td><td><div>text/html,application/xhtml+xml,application/xml;q=0.9,image/webp,*/*;q=0.8</div></td></tr><tr><td style="font-weight:bold;vertical-align:top;">http_accept_encoding</td><td style="vertical-align:top;">:</td><td><div>gzip, deflate, sdch</div></td></tr><tr><td style="font-weight:bold;vertical-align:top;">http_accept_language</td><td style="vertical-align:top;">:</td><td><div>en-US,en;q=0.8</div></td></tr><tr><td style="font-weight:bold;vertical-align:top;">http_cache_control</td><td style="vertical-align:top;">:</td><td><div>max-age=0</div></td></tr><tr><td style="font-weight:bold;vertical-align:top;">http_connection</td><td style="vertical-align:top;">:</td><td><div>keep-alive</div></td></tr><tr><td style="font-weight:bold;vertical-align:top;">http_cookie</td><td style="vertical-align:top;">:</td><td><div>gsScrollPos=; session_id_grievances=127.0.0.1-39bee78a-8e5b-4d17-ad2b-fa503b854ff7; session_id_moodleplus=127.0.0.1-1da20854-4832-4b2c-a05d-3e22d05c8dea; session_id_sample1=127.0.0.1-69257c23-3e3c-4433-8daa-b0ad4e8056af; _ga=GA1.1.333590026.1458794726; session_id_admin=127.0.0.1-02afdf41-3dbe-47a9-92fd-e1e0b18915fb; session_id_welcome=127.0.0.1-f33ff9fc-48fd-4105-928f-004acb56770e; session_id_grs=127.0.0.1-1ef657fd-3a6d-4af6-8842-edda3f0931a8</div></td></tr><tr><td style="font-weight:bold;vertical-align:top;">http_host</td><td style="vertical-align:top;">:</td><td><div>127.0.0.1:8000</div></td></tr><tr><td style="font-weight:bold;vertical-align:top;">http_upgrade_insecure_requests</td><td style="vertical-align:top;">:</td><td><div>1</div></td></tr><tr><td style="font-weight:bold;vertical-align:top;">http_user_agent</td><td style="vertical-align:top;">:</td><td><div>Mozilla/5.0 (X11; Linux x86_64) AppleWebKit/537.36 (KHTML, like Gecko) Ubuntu Chromium/48.0.2564.116 Chrome/48.0.2564.116 Safari/537.36</div></td></tr><tr><td style="font-weight:bold;vertical-align:top;">is_jython</td><td style="vertical-align:top;">:</td><td><div>False</div></td></tr><tr><td style="font-weight:bold;vertical-align:top;">is_pypy</td><td style="vertical-align:top;">:</td><td><div>False</div></td></tr><tr><td style="font-weight:bold;vertical-align:top;">is_source</td><td style="vertical-align:top;">:</td><td><div>True</div></td></tr><tr><td style="font-weight:bold;vertical-align:top;">local_hosts</td><td style="vertical-align:top;">:</td><td><div><table><tr><td><div>user-Z5WAH</div></td></tr><tr><td><div>::1</div></td></tr><tr><td><div>127.0.1.1</div></td></tr><tr><td><div>::ffff:127.0.0.1</div></td></tr><tr><td><div>127.0.0.1</div></td></tr></table></div></td></tr><tr><td style="font-weight:bold;vertical-align:top;">path_info</td><td style="vertical-align:top;">:</td><td><div>/GRS/user/login</div></td></tr><tr><td style="font-weight:bold;vertical-align:top;">query_string</td><td style="vertical-align:top;">:</td><td><div>username=user&amp;password=12345</div></td></tr><tr><td style="font-weight:bold;vertical-align:top;">remote_addr</td><td style="vertical-align:top;">:</td><td><div>127.0.0.1</div></td></tr><tr><td style="font-weight:bold;vertical-align:top;">remote_port</td><td style="vertical-align:top;">:</td><td><div>52660</div></td></tr><tr><td style="font-weight:bold;vertical-align:top;">request_method</td><td style="vertical-align:top;">:</td><td><div>GET</div></td></tr><tr><td style="font-weight:bold;vertical-align:top;">request_uri</td><td style="vertical-align:top;">:</td><td><div>/GRS/user/login?username=user&amp;password=12345</div></td></tr><tr><td style="font-weight:bold;vertical-align:top;">script_name</td><td style="vertical-align:top;">:</td><td><div></div></td></tr><tr><td style="font-weight:bold;vertical-align:top;">server_name</td><td style="vertical-align:top;">:</td><td><div>user-Z5WAH</div></td></tr><tr><td style="font-weight:bold;vertical-align:top;">server_port</td><td style="vertical-align:top;">:</td><td><div>8000</div></td></tr><tr><td style="font-weight:bold;vertical-align:top;">server_protocol</td><td style="vertical-align:top;">:</td><td><div>HTTP/1.1</div></td></tr><tr><td style="font-weight:bold;vertical-align:top;">server_software</td><td style="vertical-align:top;">:</td><td><div>Rocket 1.2.6</div></td></tr><tr><td style="font-weight:bold;vertical-align:top;">web2py_path</td><td style="vertical-align:top;">:</td><td><div>/home/user/Local Disk E/COP290/assignment2/GRS_Grievances_Resolution_System/web2py</div></td></tr><tr><td style="font-weight:bold;vertical-align:top;">web2py_version</td><td style="vertical-align:top;">:</td><td><div>2.14.2-stable+timestamp.2016.03.24.22.47.49</div></td></tr><tr><td style="font-weight:bold;vertical-align:top;">wsgi.errors</td><td style="vertical-align:top;">:</td><td><div>&lt;open file &#x27;&lt;stderr&gt;&#x27;, mode &#x27;w&#x27; at 0x7fc3d616c1e0&gt;</div></td></tr><tr><td style="font-weight:bold;vertical-align:top;">wsgi.file_wrapper</td><td style="vertical-align:top;">:</td><td><div>&lt;class wsgiref.util.FileWrapper at 0x7fc3d1109c80&gt;</div></td></tr><tr><td style="font-weight:bold;vertical-align:top;">wsgi.input</td><td style="vertical-align:top;">:</td><td><div>&lt;socket._fileobject object at 0x7fc3d13dfd50&gt;</div></td></tr><tr><td style="font-weight:bold;vertical-align:top;">wsgi.multiprocess</td><td style="vertical-align:top;">:</td><td><div>False</div></td></tr><tr><td style="font-weight:bold;vertical-align:top;">wsgi.multithread</td><td style="vertical-align:top;">:</td><td><div>True</div></td></tr><tr><td style="font-weight:bold;vertical-align:top;">wsgi.run_once</td><td style="vertical-align:top;">:</td><td><div>False</div></td></tr><tr><td style="font-weight:bold;vertical-align:top;">wsgi.url_scheme</td><td style="vertical-align:top;">:</td><td><div>http</div></td></tr><tr><td style="font-weight:bold;vertical-align:top;">wsgi.version</td><td style="vertical-align:top;">:</td><td><div><table><tr><td><div>1</div></td></tr><tr><td><div>0</div></td></tr></table></div></td></tr><tr><td style="font-weight:bold;vertical-align:top;">wsgi_errors</td><td style="vertical-align:top;">:</td><td><div>&lt;open file &#x27;&lt;stderr&gt;&#x27;, mode &#x27;w&#x27; at 0x7fc3d616c1e0&gt;</div></td></tr><tr><td style="font-weight:bold;vertical-align:top;">wsgi_file_wrapper</td><td style="vertical-align:top;">:</td><td><div>&lt;class wsgiref.util.FileWrapper at 0x7fc3d1109c80&gt;</div></td></tr><tr><td style="font-weight:bold;vertical-align:top;">wsgi_input</td><td style="vertical-align:top;">:</td><td><div>&lt;socket._fileobject object at 0x7fc3d13dfd50&gt;</div></td></tr><tr><td style="font-weight:bold;vertical-align:top;">wsgi_multiprocess</td><td style="vertical-align:top;">:</td><td><div>False</div></td></tr><tr><td style="font-weight:bold;vertical-align:top;">wsgi_multithread</td><td style="vertical-align:top;">:</td><td><div>True</div></td></tr><tr><td style="font-weight:bold;vertical-align:top;">wsgi_run_once</td><td style="vertical-align:top;">:</td><td><div>False</div></td></tr><tr><td style="font-weight:bold;vertical-align:top;">wsgi_url_scheme</td><td style="vertical-align:top;">:</td><td><div>http</div></td></tr><tr><td style="font-weight:bold;vertical-align:top;">wsgi_version</td><td style="vertical-align:top;">:</td><td><div><table><tr><td><div>1</div></td></tr><tr><td><div>0</div></td></tr></table></div></td></tr></table></div></td></tr><tr><td style="font-weight:bold;vertical-align:top;">extension</td><td style="vertical-align:top;">:</td><td><div>html</div></td></tr><tr><td style="font-weight:bold;vertical-align:top;">folder</td><td style="vertical-align:top;">:</td><td><div>/home/user/Local Disk E/COP290/assignment2/GRS_Grievances_Resolution_System/web2py/applications/GRS/</div></td></tr><tr><td style="font-weight:bold;vertical-align:top;">function</td><td style="vertical-align:top;">:</td><td><div>login</div></td></tr><tr><td style="font-weight:bold;vertical-align:top;">global_settings</td><td style="vertical-align:top;">:</td><td><div><table><tr><td style="font-weight:bold;vertical-align:top;">app_folders</td><td style="vertical-align:top;">:</td><td><div>set([&#x27;/home/user/Local Disk E/COP290/assignment2/GRS_Grievances_Resolution_System/web2py/applications/welcome/&#x27;, &#x27;/home/user/Local Disk E/COP290/assignment2/GRS_Grievances_Resolution_System/web2py/applications/GRS/&#x27;, &#x27;/home/user/Local Disk E/COP290/assignment2/GRS_Grievances_Resolution_System/web2py/applications/admin/&#x27;])</div></td></tr><tr><td style="font-weight:bold;vertical-align:top;">applications_parent</td><td style="vertical-align:top;">:</td><td><div>/home/user/Local Disk E/COP290/assignment2/GRS_Grievances_Resolution_System/web2py</div></td></tr><tr><td style="font-weight:bold;vertical-align:top;">cmd_args</td><td style="vertical-align:top;">:</td><td><div><table></table></div></td></tr><tr><td style="font-weight:bold;vertical-align:top;">cmd_options</td><td style="vertical-align:top;">:</td><td><div>&lt;Values at 0x7fc3d1892908: {&#x27;verbose&#x27;: False, &#x27;ip&#x27;: &#x27;127.0.0.1&#x27;, &#x27;debuglevel&#x27;: 30, &#x27;with_scheduler&#x27;: False, &#x27;shutdown_timeout&#x27;: 5, &#x27;taskbar&#x27;: False, &#x27;with_coverage&#x27;: False, &#x27;pid_filename&#x27;: &#x27;httpserver.pid&#x27;, &#x27;maxthreads&#x27;: None, &#x27;softcron&#x27;: False, &#x27;server_name&#x27;: &#x27;user-Z5WAH&#x27;, &#x27;bpython&#x27;: False, &#x27;nogui&#x27;: False, &#x27;port&#x27;: 8000, &#x27;print_errors&#x27;: False, &#x27;extcron&#x27;: False, &#x27;runcron&#x27;: False, &#x27;run_system_tests&#x27;: False, &#x27;test&#x27;: None, &#x27;folder&#x27;: &#x27;/home/user/Local Disk E/COP290/assignment2/GRS_Grievances_Resolution_System/web2py&#x27;, &#x27;config&#x27;: &#x27;&#x27;, &#x27;minthreads&#x27;: None, &#x27;shell&#x27;: None, &#x27;run&#x27;: &#x27;&#x27;, &#x27;log_filename&#x27;: &#x27;httpserver.log&#x27;, &#x27;profiler_dir&#x27;: None, &#x27;args&#x27;: [&#x27;&#x27;], &#x27;socket_timeout&#x27;: 5, &#x27;ssl_ca_certificate&#x27;: None, &#x27;scheduler&#x27;: None, &#x27;interfaces&#x27;: None, &#x27;ssl_private_key&#x27;: &#x27;&#x27;, &#x27;gae&#x27;: None, &#x27;password&#x27;: &#x27;******&#x27;, &#x27;request_queue_size&#x27;: 5, &#x27;ssl_certificate&#x27;: &#x27;&#x27;, &#x27;cronjob&#x27;: False, &#x27;numthreads&#x27;: None, &#x27;quiet&#x27;: False, &#x27;import_models&#x27;: False, &#x27;timeout&#x27;: 10, &#x27;plain&#x27;: False, &#x27;nobanner&#x27;: False}&gt;</div></td></tr><tr><td style="font-weight:bold;vertical-align:top;">db_sessions</td><td style="vertical-align:top;">:</td><td><div>set([])</div></td></tr><tr><td style="font-weight:bold;vertical-align:top;">debugging</td><td style="vertical-align:top;">:</td><td><div>True</div></td></tr><tr><td style="font-weight:bold;vertical-align:top;">gluon_parent</td><td style="vertical-align:top;">:</td><td><div>/home/user/Local Disk E/COP290/assignment2/GRS_Grievances_Resolution_System/web2py</div></td></tr><tr><td style="font-weight:bold;vertical-align:top;">is_jython</td><td style="vertical-align:top;">:</td><td><div>False</div></td></tr><tr><td style="font-weight:bold;vertical-align:top;">is_pypy</td><td style="vertical-align:top;">:</td><td><div>False</div></td></tr><tr><td style="font-weight:bold;vertical-align:top;">is_source</td><td style="vertical-align:top;">:</td><td><div>True</div></td></tr><tr><td style="font-weight:bold;vertical-align:top;">local_hosts</td><td style="vertical-align:top;">:</td><td><div><table><tr><td><div>user-Z5WAH</div></td></tr><tr><td><div>::1</div></td></tr><tr><td><div>127.0.1.1</div></td></tr><tr><td><div>::ffff:127.0.0.1</div></td></tr><tr><td><div>127.0.0.1</div></td></tr></table></div></td></tr><tr><td style="font-weight:bold;vertical-align:top;">web2py_version</td><td style="vertical-align:top;">:</td><td><div>2.14.2-stable+timestamp.2016.03.24.22.47.49</div></td></tr></table></div></td></tr><tr><td style="font-weight:bold;vertical-align:top;">is_https</td><td style="vertical-align:top;">:</td><td><div>False</div></td></tr><tr><td style="font-weight:bold;vertical-align:top;">is_local</td><td style="vertical-align:top;">:</td><td><div>True</div></td></tr><tr><td style="font-weight:bold;vertical-align:top;">is_restful</td><td style="vertical-align:top;">:</td><td><div>False</div></td></tr><tr><td style="font-weight:bold;vertical-align:top;">is_scheduler</td><td style="vertical-align:top;">:</td><td><div>False</div></td></tr><tr><td style="font-weight:bold;vertical-align:top;">is_shell</td><td style="vertical-align:top;">:</td><td><div>False</div></td></tr><tr><td style="font-weight:bold;vertical-align:top;">now</td><td style="vertical-align:top;">:</td><td><div>datetime.datetime(2016, 3, 27, 17, 16, 45, 960151)</div></td></tr><tr><td style="font-weight:bold;vertical-align:top;">raw_args</td><td style="vertical-align:top;">:</td><td><div></div></td></tr><tr><td style="font-weight:bold;vertical-align:top;">raw_extension</td><td style="vertical-align:top;">:</td><td><div>None</div></td></tr><tr><td style="font-weight:bold;vertical-align:top;">url</td><td style="vertical-align:top;">:</td><td><div>/GRS/user/login</div></td></tr><tr><td style="font-weight:bold;vertical-align:top;">utcnow</td><td style="vertical-align:top;">:</td><td><div>datetime.datetime(2016, 3, 27, 11, 46, 45, 960208)</div></td></tr><tr><td style="font-weight:bold;vertical-align:top;">wsgi</td><td style="vertical-align:top;">:</td><td><div>&lt;gluon.main.LazyWSGI object at 0x7fc38bed6190&gt;</div></td></tr></table></div>'
tRp58
sS'frames'
p59
(lp60
(dp61
S'file'
p62
S'/home/user/Local Disk E/COP290/assignment2/GRS_Grievances_Resolution_System/web2py/gluon/restricted.py'
p63
sS'dump'
p64
(dp65
S'environment'
p66
S"{'A': <class 'gluon.html.A'>, 'ANY_OF': <class 'gluon.validators.ANY_OF'>, 'ASSIGNJS': <function ASSIGNJS>, 'AppConfig': <function AppConfig>, 'Auth': <class 'gluon.tools.Auth'>, 'B': <class 'gluon.html.B'>, 'BEAUTIFY': <class 'gluon.html.BEAUTIFY'>, 'BODY': <class 'gluon.html.BODY'>, 'BR': <class 'gluon.html.BR'>, 'BUTTON': <class 'gluon.html.BUTTON'>, ...}"
p67
sS'ccode'
p68
S'<code object <module> at 0x7fc3cc5ce630, file "/...m/web2py/applications/GRS/models/db.py", line 13>'
p69
ssS'lnum'
p70
I227
sS'lines'
p71
(dp72
I224
S'            ccode = code'
p73
sI225
S'        else:'
p74
sI226
S'            ccode = compile2(code, layer)'
p75
sI227
S'        exec ccode in environment'
p76
sI228
S'    except HTTP:'
p77
sI229
S'        raise'
p78
sI230
S'    except RestrictedError:'
p79
sI231
S'        # do not encapsulate (obfuscate) the original RestrictedError'
p80
sI222
S'    try:'
p81
sI223
S'        if isinstance(code, types.CodeType):'
p82
ssS'call'
p83
S'(code="# -*- coding: utf-8 -*-\\n\\n#######################...db.users),\\n    Field(\'is_hidden\', \'boolean\'),\\n)\\n\\n", environment={\'A\': <class \'gluon.html.A\'>, \'ANY_OF\': <class \'gluon.validators.ANY_OF\'>, \'ASSIGNJS\': <function ASSIGNJS>, \'AppConfig\': <function AppConfig>, \'Auth\': <class \'gluon.tools.Auth\'>, \'B\': <class \'gluon.html.B\'>, \'BEAUTIFY\': <class \'gluon.html.BEAUTIFY\'>, \'BODY\': <class \'gluon.html.BODY\'>, \'BR\': <class \'gluon.html.BR\'>, \'BUTTON\': <class \'gluon.html.BUTTON\'>, ...}, layer=\'/home/user/Local Disk E/COP290/assignment2/GRS_G...ution_System/web2py/applications/GRS/models/db.py\')'
p84
sS'func'
p85
S'restricted'
p86
sa(dp87
g62
S'/home/user/Local Disk E/COP290/assignment2/GRS_Grievances_Resolution_System/web2py/applications/GRS/models/db.py'
p88
sg64
(dp89
S'custom_auth'
p90
S'undefined'
p91
ssg70
I128
sg71
(dp92
I128
S"custom_auth.settings.login_userfield = 'first_name'        #the loginfield will be username"
p93
sI129
S"#auth.settings.login_userfield = 'username'        #the loginfield will be username"
p94
sI130
S'#auth.define_tables(username=False)    #Creating the table'
p95
sI131
S'#auth.define_tables(migrate=False)'
p96
sI132
S''
sI123
S"#auth.settings.table_user_name = 'users'    #Very important to mention"
p97
sI124
S"#auth.settings.table_group_name = 'user_group'"
p98
sI125
S"#auth.settings.table_membership_name = 'user_membership'"
p99
sI126
S"#auth.settings.table_permission_name = 'user_permission'"
p100
sI127
S"#auth.settings.table_event_name = 'user_event'"
p101
ssg83
S'()'
p102
sg85
S'<module>'
p103
sasS'pyver'
p104
S'Python 2.7.10: /usr/bin/python (prefix: /usr)'
p105
sS'session'
p106
g57
(S's\xe4\x07\x00\x00<div><table><tr><td style="font-weight:bold;vertical-align:top;">auth</td><td style="vertical-align:top;">:</td><td><div><table><tr><td style="font-weight:bold;vertical-align:top;">expiration</td><td style="vertical-align:top;">:</td><td><div>3600</div></td></tr><tr><td style="font-weight:bold;vertical-align:top;">hmac_key</td><td style="vertical-align:top;">:</td><td><div>1cbc129c-6cd6-4425-8c1e-a4f29f427461</div></td></tr><tr><td style="font-weight:bold;vertical-align:top;">last_visit</td><td style="vertical-align:top;">:</td><td><div>datetime.datetime(2016, 3, 27, 17, 11, 31, 401867)</div></td></tr><tr><td style="font-weight:bold;vertical-align:top;">user</td><td style="vertical-align:top;">:</td><td><div><table><tr><td style="font-weight:bold;vertical-align:top;">email</td><td style="vertical-align:top;">:</td><td><div>usr1@usr.com</div></td></tr><tr><td style="font-weight:bold;vertical-align:top;">first_name</td><td style="vertical-align:top;">:</td><td><div>usr1</div></td></tr><tr><td style="font-weight:bold;vertical-align:top;">id</td><td style="vertical-align:top;">:</td><td><div>1L</div></td></tr><tr><td style="font-weight:bold;vertical-align:top;">last_name</td><td style="vertical-align:top;">:</td><td><div>None</div></td></tr><tr><td style="font-weight:bold;vertical-align:top;">registration_id</td><td style="vertical-align:top;">:</td><td><div>None</div></td></tr><tr><td style="font-weight:bold;vertical-align:top;">registration_key</td><td style="vertical-align:top;">:</td><td><div>None</div></td></tr><tr><td style="font-weight:bold;vertical-align:top;">reset_password_key</td><td style="vertical-align:top;">:</td><td><div>None</div></td></tr></table></div></td></tr><tr><td style="font-weight:bold;vertical-align:top;">user_groups</td><td style="vertical-align:top;">:</td><td><div><table></table></div></td></tr></table></div></td></tr><tr><td style="font-weight:bold;vertical-align:top;">flash</td><td style="vertical-align:top;">:</td><td><div>None</div></td></tr></table></div>'
tRp107
sS'etype'
p108
S"<type 'exceptions.NameError'>"
p109
sS'date'
p110
S'Sun Mar 27 17:16:46 2016'
p111
sS'response'
p112
g57
(S's\xc1\x17\x00\x00<div><table><tr><td style="font-weight:bold;vertical-align:top;">body</td><td style="vertical-align:top;">:</td><td><div>&lt;cStringIO.StringO object at 0x7fc3cc2ef148&gt;</div></td></tr><tr><td style="font-weight:bold;vertical-align:top;">cookies</td><td style="vertical-align:top;">:</td><td><div><table><tr><td style="font-weight:bold;vertical-align:top;">session_id_grs</td><td style="vertical-align:top;">:</td><td><div>127.0.0.1-1ef657fd-3a6d-4af6-8842-edda3f0931a8<table><tr><td style="font-weight:bold;vertical-align:top;">comment</td><td style="vertical-align:top;">:</td><td><div></div></td></tr><tr><td style="font-weight:bold;vertical-align:top;">domain</td><td style="vertical-align:top;">:</td><td><div></div></td></tr><tr><td style="font-weight:bold;vertical-align:top;">expires</td><td style="vertical-align:top;">:</td><td><div></div></td></tr><tr><td style="font-weight:bold;vertical-align:top;">httponly</td><td style="vertical-align:top;">:</td><td><div></div></td></tr><tr><td style="font-weight:bold;vertical-align:top;">max-age</td><td style="vertical-align:top;">:</td><td><div></div></td></tr><tr><td style="font-weight:bold;vertical-align:top;">path</td><td style="vertical-align:top;">:</td><td><div>/</div></td></tr><tr><td style="font-weight:bold;vertical-align:top;">secure</td><td style="vertical-align:top;">:</td><td><div></div></td></tr><tr><td style="font-weight:bold;vertical-align:top;">version</td><td style="vertical-align:top;">:</td><td><div></div></td></tr></table></div></td></tr></table></div></td></tr><tr><td style="font-weight:bold;vertical-align:top;">delimiters</td><td style="vertical-align:top;">:</td><td><div><table><tr><td><div>{{</div></td></tr><tr><td><div>}}</div></td></tr></table></div></td></tr><tr><td style="font-weight:bold;vertical-align:top;">files</td><td style="vertical-align:top;">:</td><td><div><table></table></div></td></tr><tr><td style="font-weight:bold;vertical-align:top;">flash</td><td style="vertical-align:top;">:</td><td><div></div></td></tr><tr><td style="font-weight:bold;vertical-align:top;">form_label_separator</td><td style="vertical-align:top;">:</td><td><div></div></td></tr><tr><td style="font-weight:bold;vertical-align:top;">formstyle</td><td style="vertical-align:top;">:</td><td><div>bootstrap3_inline</div></td></tr><tr><td style="font-weight:bold;vertical-align:top;">generic_patterns</td><td style="vertical-align:top;">:</td><td><div><table><tr><td><div>*</div></td></tr></table></div></td></tr><tr><td style="font-weight:bold;vertical-align:top;">headers</td><td style="vertical-align:top;">:</td><td><div><table><tr><td style="font-weight:bold;vertical-align:top;">X-Powered-By</td><td style="vertical-align:top;">:</td><td><div>web2py</div></td></tr></table></div></td></tr><tr><td style="font-weight:bold;vertical-align:top;">menu</td><td style="vertical-align:top;">:</td><td><div><table></table></div></td></tr><tr><td style="font-weight:bold;vertical-align:top;">meta</td><td style="vertical-align:top;">:</td><td><div><table></table></div></td></tr><tr><td style="font-weight:bold;vertical-align:top;">models_to_run</td><td style="vertical-align:top;">:</td><td><div><table><tr><td><div>^\\w+\\.py$</div></td></tr><tr><td><div>^user/\\w+\\.py$</div></td></tr><tr><td><div>^user/login/\\w+\\.py$</div></td></tr></table></div></td></tr><tr><td style="font-weight:bold;vertical-align:top;">postprocessing</td><td style="vertical-align:top;">:</td><td><div><table></table></div></td></tr><tr><td style="font-weight:bold;vertical-align:top;">session_client</td><td style="vertical-align:top;">:</td><td><div>127.0.0.1</div></td></tr><tr><td style="font-weight:bold;vertical-align:top;">session_cookie_compression_level</td><td style="vertical-align:top;">:</td><td><div>None</div></td></tr><tr><td style="font-weight:bold;vertical-align:top;">session_cookie_expires</td><td style="vertical-align:top;">:</td><td><div>None</div></td></tr><tr><td style="font-weight:bold;vertical-align:top;">session_data_name</td><td style="vertical-align:top;">:</td><td><div>session_data_grs</div></td></tr><tr><td style="font-weight:bold;vertical-align:top;">session_file</td><td style="vertical-align:top;">:</td><td><div>&lt;open file &#x27;/home/user/Local Disk E/COP290/assignment2/GRS_Grievances_Resolution_System/web2py/applications/GRS/sessions/0fc/047/127.0.0.1-1ef657fd-3a6d-4af6-8842-edda3f0931a8&#x27;, mode &#x27;rb+&#x27; at 0x7fc3d1140c90&gt;</div></td></tr><tr><td style="font-weight:bold;vertical-align:top;">session_filename</td><td style="vertical-align:top;">:</td><td><div>/home/user/Local Disk E/COP290/assignment2/GRS_Grievances_Resolution_System/web2py/applications/GRS/sessions/127.0.0.1-1ef657fd-3a6d-4af6-8842-edda3f0931a8</div></td></tr><tr><td style="font-weight:bold;vertical-align:top;">session_hash</td><td style="vertical-align:top;">:</td><td><div>0b6952d3144ec9b7621d53e1f0e7b92a</div></td></tr><tr><td style="font-weight:bold;vertical-align:top;">session_id</td><td style="vertical-align:top;">:</td><td><div>127.0.0.1-1ef657fd-3a6d-4af6-8842-edda3f0931a8</div></td></tr><tr><td style="font-weight:bold;vertical-align:top;">session_id_name</td><td style="vertical-align:top;">:</td><td><div>session_id_grs</div></td></tr><tr><td style="font-weight:bold;vertical-align:top;">session_locked</td><td style="vertical-align:top;">:</td><td><div>True</div></td></tr><tr><td style="font-weight:bold;vertical-align:top;">session_masterapp</td><td style="vertical-align:top;">:</td><td><div>GRS</div></td></tr><tr><td style="font-weight:bold;vertical-align:top;">session_new</td><td style="vertical-align:top;">:</td><td><div>False</div></td></tr><tr><td style="font-weight:bold;vertical-align:top;">session_storage_type</td><td style="vertical-align:top;">:</td><td><div>file</div></td></tr><tr><td style="font-weight:bold;vertical-align:top;">status</td><td style="vertical-align:top;">:</td><td><div>200</div></td></tr><tr><td style="font-weight:bold;vertical-align:top;">view</td><td style="vertical-align:top;">:</td><td><div>user/login.html</div></td></tr></table></div>'
tRp113
sS'locals'
p114
(dp115
S'Service'
p116
S"<class 'gluon.tools.Service'>"
p117
sS'OBJECT'
p118
S"<class 'gluon.html.OBJECT'>"
p119
sS'datetime'
p120
S"<type 'datetime.datetime'>"
p121
sg106
S"<Storage {'flash': None, 'auth': <Storage {'hmac...88d3a', '42194e5c-f140-4162-8f86-586e4be5bdc9']}>"
p122
sS'LINK'
p123
S"<class 'gluon.html.LINK'>"
p124
sS'BR'
p125
S"<class 'gluon.html.BR'>"
p126
sS'local_import'
p127
S'<function <lambda>>'
p128
sS'OPTGROUP'
p129
S"<class 'gluon.html.OPTGROUP'>"
p130
sS'LI'
p131
S"<class 'gluon.html.LI'>"
p132
sS'PRE'
p133
S"<class 'gluon.html.PRE'>"
p134
sS'IS_INT_IN_RANGE'
p135
S"<class 'gluon.validators.IS_INT_IN_RANGE'>"
p136
sS'IS_LOWER'
p137
S"<class 'gluon.validators.IS_LOWER'>"
p138
sS'IS_STRONG'
p139
S"<class 'gluon.validators.IS_STRONG'>"
p140
sS'cache'
p141
S'<gluon.cache.Cache object>'
p142
sS'IS_IN_DB'
p143
S"<class 'gluon.validators.IS_IN_DB'>"
p144
sS'TAG'
p145
S'<gluon.html.__TAG__ object>'
p146
sS'SQLField'
p147
S"<class 'pydal.objects.Field'>"
p148
sS'mail'
p149
S'<gluon.tools.Mail object>'
p150
sS'BODY'
p151
S"<class 'gluon.html.BODY'>"
p152
sS'IS_DATE_IN_RANGE'
p153
S"<class 'gluon.validators.IS_DATE_IN_RANGE'>"
p154
sS'TH'
p155
S"<class 'gluon.html.TH'>"
p156
sS'URL'
p157
S'<function URL>'
p158
sS'__file__'
p159
S"'/home/user/Local Disk E/COP290/assignment2/GRS_G...ution_System/web2py/applications/GRS/models/db.py'"
p160
sS'db'
p161
S'<DAL uri="sqlite://storage.sqlite">'
p162
sS'auth'
p163
S'<gluon.tools.Auth object>'
p164
sS'P'
S"<class 'gluon.html.P'>"
p165
sS'TFOOT'
p166
S"<class 'gluon.html.TFOOT'>"
p167
sS'XHTML'
p168
S"<class 'gluon.html.XHTML'>"
p169
sS'SQLDB'
p170
S"<class 'pydal.base.DAL'>"
p171
sS'ON'
p172
S'True'
p173
sS'OL'
p174
S"<class 'gluon.html.OL'>"
p175
sS'TEXTAREA'
p176
S"<class 'gluon.html.TEXTAREA'>"
p177
sS'MENU'
p178
S"<class 'gluon.html.MENU'>"
p179
sS'IS_IMAGE'
p180
S"<class 'gluon.validators.IS_IMAGE'>"
p181
sS'LOAD'
p182
S'<function LOAD>'
p183
sS'CODE'
p184
S"<class 'gluon.html.CODE'>"
p185
sS'HTTP'
p186
S"<class 'gluon.http.HTTP'>"
p187
sS'HR'
p188
S"<class 'gluon.html.HR'>"
p189
sS'IS_DATETIME'
p190
S"<class 'gluon.validators.IS_DATETIME'>"
p191
sS'HEAD'
p192
S"<class 'gluon.html.HEAD'>"
p193
sS'LABEL'
p194
S"<class 'gluon.html.LABEL'>"
p195
sS'CLEANUP'
p196
S"<class 'gluon.validators.CLEANUP'>"
p197
sS'plugins'
p198
S'<gluon.tools.PluginManager object>'
p199
sS'SELECT'
p200
S"<class 'gluon.html.SELECT'>"
p201
sS'CENTER'
p202
S"<class 'gluon.html.CENTER'>"
p203
sS'custom_auth_table'
p204
S'<Table users (id, username, password, first_name...ree_name, hostel_id, picture_id, year_of_degree)>'
p205
sS'Auth'
p206
S"<class 'gluon.tools.Auth'>"
p207
sS'__builtins__'
p208
S"{'ArithmeticError': <type 'exceptions.ArithmeticError'>, 'AssertionError': <type 'exceptions.AssertionError'>, 'AttributeError': <type 'exceptions.AttributeError'>, 'BaseException': <type 'exceptions.BaseException'>, 'BufferError': <type 'exceptions.BufferError'>, 'BytesWarning': <type 'exceptions.BytesWarning'>, 'DeprecationWarning': <type 'exceptions.DeprecationWarning'>, 'EOFError': <type 'exceptions.EOFError'>, 'Ellipsis': Ellipsis, 'EnvironmentError': <type 'exceptions.EnvironmentError'>, ...}"
p209
sS'HTML'
p210
S"<class 'gluon.html.HTML'>"
p211
sS'SQLFORM'
p212
S"<class 'gluon.sqlhtml.SQLFORM'>"
p213
sS'EM'
p214
S"<class 'gluon.html.EM'>"
p215
sS'redirect'
p216
S'<function redirect>'
p217
sS'FIELDSET'
p218
S"<class 'gluon.html.FIELDSET'>"
p219
sS'IS_EQUAL_TO'
p220
S"<class 'gluon.validators.IS_EQUAL_TO'>"
p221
sS'embed64'
p222
S'<function embed64>'
p223
sS'IS_LIST_OF'
p224
S"<class 'gluon.validators.IS_LIST_OF'>"
p225
sS'__name__'
p226
S"'__restricted__'"
p227
sS'EMBED'
p228
S"<class 'gluon.html.EMBED'>"
p229
sS'FORM'
p230
S"<class 'gluon.html.FORM'>"
p231
sS'myconf'
p232
S"{'forms': {'formstyle': 'bootstrap3_inline', 'se...': {'names': 'localhost:*, 127.0.0.1:*, *:*, *'}}"
p233
sS'H2'
p234
S"<class 'gluon.html.H2'>"
p235
sS'H3'
p236
S"<class 'gluon.html.H3'>"
p237
sS'AppConfig'
p238
S'<function AppConfig>'
p239
sS'H1'
p240
S"<class 'gluon.html.H1'>"
p241
sS'H6'
p242
S"<class 'gluon.html.H6'>"
p243
sS'H4'
p244
S"<class 'gluon.html.H4'>"
p245
sS'H5'
p246
S"<class 'gluon.html.H5'>"
p247
sS'UL'
p248
S"<class 'gluon.html.UL'>"
p249
sS'IS_UPPER'
p250
S"<class 'gluon.validators.IS_UPPER'>"
p251
sS'xmlescape'
p252
S'<function xmlescape>'
p253
sS'IS_TIME'
p254
S"<class 'gluon.validators.IS_TIME'>"
p255
sS'OPTION'
p256
S"<class 'gluon.html.OPTION'>"
p257
sS'TITLE'
p258
S"<class 'gluon.html.TITLE'>"
p259
sS'CRYPT'
p260
S"<class 'gluon.validators.CRYPT'>"
p261
sS'IS_EMPTY_OR'
p262
S"<class 'gluon.validators.IS_EMPTY_OR'>"
p263
sS'MARKMIN'
p264
S"<class 'gluon.html.MARKMIN'>"
p265
sS'INPUT'
p266
S"<class 'gluon.html.INPUT'>"
p267
sS'STRONG'
p268
S"<class 'gluon.html.STRONG'>"
p269
sS'COL'
p270
S"<class 'gluon.html.COL'>"
p271
sS'service'
p272
S'<gluon.tools.Service object>'
p273
sS'SCRIPT'
p274
S"<class 'gluon.html.SCRIPT'>"
p275
sS'TABLE'
p276
S"<class 'gluon.html.TABLE'>"
p277
sS'IS_IPV4'
p278
S"<class 'gluon.validators.IS_IPV4'>"
p279
sS'IS_LENGTH'
p280
S"<class 'gluon.validators.IS_LENGTH'>"
p281
sS'IS_IPV6'
p282
S"<class 'gluon.validators.IS_IPV6'>"
p283
sS'XML'
p284
S"<class 'gluon.html.XML'>"
p285
sS'B'
S"<class 'gluon.html.B'>"
p286
sS'IMG'
p287
S"<class 'gluon.html.IMG'>"
p288
sS'SQLTABLE'
p289
S"<class 'gluon.sqlhtml.SQLTABLE'>"
p290
sS'IS_MATCH'
p291
S"<class 'gluon.validators.IS_MATCH'>"
p292
sS'IS_ALPHANUMERIC'
p293
S"<class 'gluon.validators.IS_ALPHANUMERIC'>"
p294
sS'SPAN'
p295
S"<class 'gluon.html.SPAN'>"
p296
sS'IS_JSON'
p297
S"<class 'gluon.validators.IS_JSON'>"
p298
sS'IS_IPADDRESS'
p299
S"<class 'gluon.validators.IS_IPADDRESS'>"
p300
sS'IS_SLUG'
p301
S"<class 'gluon.validators.IS_SLUG'>"
p302
sS'BEAUTIFY'
p303
S"<class 'gluon.html.BEAUTIFY'>"
p304
sS'META'
p305
S"<class 'gluon.html.META'>"
p306
sS'BUTTON'
p307
S"<class 'gluon.html.BUTTON'>"
p308
sS'IS_DATE'
p309
S"<class 'gluon.validators.IS_DATE'>"
p310
sS'IS_EMAIL'
p311
S"<class 'gluon.validators.IS_EMAIL'>"
p312
sS'IS_NOT_EMPTY'
p313
S"<class 'gluon.validators.IS_NOT_EMPTY'>"
p314
sS'IS_FLOAT_IN_RANGE'
p315
S"<class 'gluon.validators.IS_FLOAT_IN_RANGE'>"
p316
sS'TBODY'
p317
S"<class 'gluon.html.TBODY'>"
p318
sS'CAT'
p319
S"<class 'gluon.html.CAT'>"
p320
sS'Field'
p321
S"<class 'pydal.objects.Field'>"
p322
sS'IS_LIST_OF_EMAILS'
p323
S"<class 'gluon.validators.IS_LIST_OF_EMAILS'>"
p324
sS'DIV'
p325
S"<class 'gluon.html.DIV'>"
p326
sS'LEGEND'
p327
S"<class 'gluon.html.LEGEND'>"
p328
sS'COLGROUP'
p329
S"<class 'gluon.html.COLGROUP'>"
p330
sS'DAL'
p331
S"<class 'pydal.base.DAL'>"
p332
sS'ASSIGNJS'
p333
S'<function ASSIGNJS>'
p334
sS'TR'
p335
S"<class 'gluon.html.TR'>"
p336
sS'__package__'
p337
S'None'
p338
sS'IFRAME'
p339
S"<class 'gluon.html.IFRAME'>"
p340
sS'TD'
p341
S"<class 'gluon.html.TD'>"
p342
sS'PluginManager'
p343
S"<class 'gluon.tools.PluginManager'>"
p344
sS'IS_URL'
p345
S"<class 'gluon.validators.IS_URL'>"
p346
sS'A'
S"<class 'gluon.html.A'>"
p347
sS'STYLE'
p348
S"<class 'gluon.html.STYLE'>"
p349
sS'IS_DATETIME_IN_RANGE'
p350
S"<class 'gluon.validators.IS_DATETIME_IN_RANGE'>"
p351
sS'timedelta'
p352
S"<type 'datetime.timedelta'>"
p353
sS'I'
S"<class 'gluon.html.I'>"
p354
sS'IS_NOT_IN_DB'
p355
S"<class 'gluon.validators.IS_NOT_IN_DB'>"
p356
sg112
S"<Storage {'body': <cStringIO.StringO object at 0...> at 0x7fc3a03020c8>, 'view': 'user/login.html'}>"
p357
sS'THEAD'
p358
S"<class 'gluon.html.THEAD'>"
p359
sS'ANY_OF'
p360
S"<class 'gluon.validators.ANY_OF'>"
p361
sS'IS_NULL_OR'
p362
S"<class 'gluon.validators.IS_EMPTY_OR'>"
p363
sg56
S"<Storage {'_vars': None, 'function': 'login', 'c...ces_Resolution_System/web2py/applications/GRS/'}>"
p364
sS'IS_EXPR'
p365
S"<class 'gluon.validators.IS_EXPR'>"
p366
sS'IS_IN_SET'
p367
S"<class 'gluon.validators.IS_IN_SET'>"
p368
sS'IS_UPLOAD_FILENAME'
p369
S"<class 'gluon.validators.IS_UPLOAD_FILENAME'>"
p370
sS'IS_DECIMAL_IN_RANGE'
p371
S"<class 'gluon.validators.IS_DECIMAL_IN_RANGE'>"
p372
sS'TT'
p373
S"<class 'gluon.html.TT'>"
p374
sS'T'
S'<gluon.languages.translator object>'
p375
sssS'traceback'
p376
S'Traceback (most recent call last):\n  File "/home/user/Local Disk E/COP290/assignment2/GRS_Grievances_Resolution_System/web2py/gluon/restricted.py", line 227, in restricted\n    exec ccode in environment\n  File "/home/user/Local Disk E/COP290/assignment2/GRS_Grievances_Resolution_System/web2py/applications/GRS/models/db.py", line 128, in <module>\n    custom_auth.settings.login_userfield = \'first_name\'        #the loginfield will be username\nNameError: name \'custom_auth\' is not defined\n'
p377
s.