(dp1
S'output'
p2
S"<type 'exceptions.AttributeError'> 'NoneType' object has no attribute 'id'"
p3
sS'layer'
p4
S'/home/user/Local Disk E/COP290/assignment2/GRS_Grievances_Resolution_System/web2py/applications/GRS/controllers/complaint.py'
p5
sS'code'
p6
S"@request.restful()\ndef details():\n\tresponse.view = 'generic.json'\n\tdef GET(complaint_id):\n\t\treturn dict(data = db.complaints(id=complaint_id))\n\treturn locals()\n\n@request.restful()\ndef levels():\n\tresponse.view = 'generic.json'\n\tdef GET():\n\t\treturn dict(data = db(db.complaint_levels.id>0).select())\n\treturn locals()\n\n@request.restful()\ndef domains():\n\tresponse.view = 'generic.json'\n\tdef GET(level_id):\n\t\treturn dict(data = db(db.complaint_domain.complaint_level_id==level_id).select())\n\treturn locals()\n\n@request.restful()\ndef bookmark():\n\tresponse.view = 'generic.json'\n\tdef GET(complaint_id):\n\t\tdata = db(db.bookmarks.complaint_id==complaint_id).select()\n\t\tif len(data)>0:\n\t\t\treturn dict(bookmarked = True)\n\t\telse:\n\t\t\treturn dict(bookmarked = False)\n\treturn locals()\n\n@request.restful()\ndef status():\n\tresponse.view = 'generic.json'\n\tdef GET(complaint_id):\n\t\treturn dict(data = db(db.complaint_status.complaint_id==complaint_id).select())\n\tdef POST(*tmp_args,**status_input):\n\t\treturn db[db.complaint_status].validate_and_insert(**status_input)\n\treturn locals()\n\n@request.restful()\ndef complaints():\n\tresponse.view = 'generic.json'\n\tdef GET(complaint_section,user_id):\n\t\tdef is_in_group(grp_id,usr_id):\n\t\t\tif not grp_id :\n\t\t\t\treturn False\n\t\t\tmembership = db(db.group_members.user_id==usr_id and db.group_members.group_id==58).select()\n\t\t\treturn dict(mem=membership)\n\t\t\tif (not membership):\n\t\t\t\treturn False\n\t\t\treturn True\n\t\t#return is_in_group(58,user_id)\n\t\tif(complaint_section=='bookmarked'):\n\t\t\treturn dict(data = db(db.bookmarks.complaint_id>0 and (db.bookmarks.user_id==user_id or is_in_group(db.bookmarks.group_id, user_id))).select())\n\t\telif(complaint_section=='concern'):\n\t\t\treturn dict(data = db(db.complaints_concerning_user.complaint_id>0 and (db.complaints_concerning_user.user_id==user_id or is_in_group(db.complaints_concerning_user.group_id, user_id))).select())\n\t\telif(complaint_section=='resolve'):\n\t\t\treturn dict(data = db(db.complaints_with_resolving_rights_to_user.complaint_id>0 and (db.complaints_with_resolving_rights_to_user.user_id==user_id or is_in_group(db.complaints_with_resolving_rights_to_user.group_id, user_id))).select())\n\t\telif(complaint_section=='solve'):\n\t\t\tall_made = db(db.complaints_made_to_user.complaint_id>0).select()\n\t\t\tret = []\n\t\t\tfor index in range(len(all_made)):\n\t\t\t\tfrom_user = all_made[index].user_id\n\t\t\t\tto_group = all_made[index].group_id\n\t\t\t\tif(from_user == user_id):\n\t\t\t\t\tret.append(all_made[index])\n\t\t\t\telse:\n\t\t\t\t\tall_members = db(db.group_members.group_id==to_group).select()\n\t\t\t\t\tfor index in range(len(all_members)):\n\t\t\t\t\t\tuser1 = db.users(id=all_members[index].user_id).id\n\t\t\t\t\t\tuser_id1 = db.users(id=user_id).id\n\t\t\t\t\t\tif(user1==user_id1):\n\t\t\t\t\t\t\tret.append(all_made[index])\n\t\t\treturn dict(data = ret)\n\treturn locals()\n\n\n@request.restful()\ndef create():\n\tresponse.view = 'generic.json'\n\tdef POST(*tmp_args,**complaint_input):\n\t\tcmplt = db[db.complaints].validate_and_insert(**complaint_input)\n\t\tcomplaint_id = cmplt.id\n\t\tuser_id = request.vars.user_id\n\t\tconcern = db.complaints_concerning_user.insert(complaint_id=complaint_id,user_id=user_id)\n\t\tpresent_domain_name = db.complaint_domain.complaint_domain_name(id=request.vars.complaint_domain_id)\n\t\treturn dict(ret = present_domain_name)\n\t\t#if\n\t\t#\tcmplt = db[db.complaints].validate_and_insert(**complaint_input)\n\tdef GET(*tmp_args,**complaint_input):\n\t\tcmplt = db[db.complaints].validate_and_insert(**complaint_input)\n\t\tcomplaint_id = cmplt.id\n\t\tuser_id = db.users(id=request.vars.posted_by)\n\t\tpresent_domain_name = db.complaint_domain(id=request.vars.complaint_domain_id).complaint_domain_name\n\t\tpresent_level_name = db.complaint_levels(id=db.complaint_domain(id=request.vars.complaint_domain_id).complaint_level_id).complaint_level_name\n\t\tif present_level_name=='Individual':\n\t\t\tcmplt_rslv = db.complaints_with_resolving_rights_to_user.insert(complaint_id=complaint_id,id_type=0,user_id=user_id)\n\t\t\tconcern = db.complaints_concerning_user.insert(complaint_id=complaint_id,id_type=0,user_id=user_id)\n\t\t\tif present_domain_name=='Electricity':\n\t\t\t\tcmplt = db.complaints_made_to_user.insert(complaint_id=complaint_id,id_type=1,group_id=db.user_group_names(group_name='Electricity Department').id)\n\t\t\telif present_domain_name=='Plumbing':\n\t\t\t\tcmplt = db.complaints_made_to_user.insert(complaint_id=complaint_id,id_type=1,group_id=db.user_group_names(group_name='Plumbing Department').id)\n\t\t\telif present_domain_name=='Carpentry':\n\t\t\t\tcmplt = db.complaints_made_to_user.insert(complaint_id=complaint_id,id_type=1,group_id=db.user_group_names(group_name='Carpentry Department').id)\n\t\t\telif present_domain_name=='UG Section':\n\t\t\t\tcmplt = db.complaints_made_to_user.insert(complaint_id=complaint_id,id_type=1,group_id=db.user_group_names(group_name='UG Section').id)\n\t\t\telif present_domain_name=='PG Section':\n\t\t\t\tcmplt = db.complaints_made_to_user.insert(complaint_id=complaint_id,id_type=1,group_id=db.user_group_names(group_name='PG Section').id)\n\t\t\telif present_domain_name=='Accounts Section':\n\t\t\t\tcmplt = db.complaints_made_to_user.insert(complaint_id=complaint_id,id_type=1,group_id=db.user_group_names(group_name='Accounts Section').id)\n\t\t\telif present_domain_name=='Students Counselling Service':\n\t\t\t\tcmplt = db.complaints_made_to_user.insert(complaint_id=complaint_id,id_type=1,group_id=db.user_group_names(group_name='Students Counselling Service').id)\n\t\t\telif present_domain_name=='Ragging':\n\t\t\t\tcmplt = db.complaints_made_to_user.insert(complaint_id=complaint_id,id_type=1,group_id=db.user_group_names(group_name='Students Counselling Service').id)\n\t\t\telif present_domain_name=='Hostel Administration':\n\t\t\t\thstl = db.users(id=user_id).hostel_id;\n\t\t\t\thostel_admin_grp = db.hostels(id=hstl).hostel_admin_group_id;\n\t\t\t\tcmplt = db.complaints_made_to_user.insert(complaint_id=complaint_id,id_type=1,group_id=hostel_admin_grp)\n\t\t\telif present_domain_name=='Security':\n\t\t\t\tcmplt = db.complaints_made_to_user.insert(complaint_id=complaint_id,id_type=1,group_id=db.user_group_names(group_name='Security Department').id)\n\t\t\t\n\n\t\t\telif present_domain_name=='Miscellaneous':\n\t\t\t\tcmplt = db[db.complaints].validate_and_insert(**complaint_input)\n\n\n\t\telif present_level_name=='Hostel':\n\n\t\t\thstl = db.users(id=user_id).hostel_id;\n\t\t\thostel_admin_grp = db.hostels(id=hstl).hostel_admin_group_id;\n\t\t\tmess_secretry = db.hostel_management(hostel_id=hstl).mess_secretary_user_id\n\t\t\tmaintenance_secretry = db.hostel_management(hostel_id=hstl).mess_secretary_user_id\n\t\t\tsports_secretry = db.hostel_management(hostel_id=hstl).mess_secretary_user_id\n\t\t\tconcern = db.complaints_concerning_user.insert(complaint_id=complaint_id,id_type=1,group_id=hostel_residents_group_id)\n\t\t\tif present_domain_name=='Infrastructure':\n\t\t\t\tcmplt = db.complaints_made_to_user.insert(complaint_id=complaint_id,id_type=1,group_id=hostel_admin_grp)\n\t\t\t\tcmplt_rslv = db.complaints_with_resolving_rights_to_user.insert(complaint_id=complaint_id,id_type=1,group_id=hostel_admin_grp)\n\t\t\telif present_domain_name=='Mess':\n\t\t\t\tcmplt = db.complaints_made_to_user.insert(complaint_id=complaint_id,id_type=0,user_id=mess_secretry)\n\t\t\t\tcmplt_rslv = db.complaints_with_resolving_rights_to_user.insert(complaint_id=complaint_id,id_type=0,user_id=mess_secretry)\n\t\t\telif present_domain_name=='Administration':\n\t\t\t\tcmplt = db.complaints_made_to_user.insert(complaint_id=complaint_id,id_type=1,group_id=hostel_admin_grp)\n\t\t\t\tcmplt_rslv = db.complaints_with_resolving_rights_to_user.insert(complaint_id=complaint_id,id_type=1,group_id=hostel_admin_grp)\n\t\t\telif present_domain_name=='Security':\n\t\t\t\tcmplt = db.complaints_made_to_user.insert(complaint_id=complaint_id,id_type=1,group_id=hostel_admin_grp)\n\t\t\t\tcmplt_rslv = db.complaints_with_resolving_rights_to_user.insert(complaint_id=complaint_id,id_type=1,group_id=hostel_admin_grp)\n\t\t\telif present_domain_name=='Sports':\n\t\t\t\tcmplt = db.complaints_made_to_user.insert(complaint_id=complaint_id,id_type=0,user_id=sports_secretry)\n\t\t\t\tcmplt_rslv = db.complaints_with_resolving_rights_to_user.insert(complaint_id=complaint_id,id_type=0,user_id=sports_secretry)\n\t\t\telif present_domain_name=='Maintenance':\n\t\t\t\tcmplt = db.complaints_made_to_user.insert(complaint_id=complaint_id,id_type=0,user_id=maintenance_secretry)\n\t\t\t\tcmplt_rslv = db.complaints_with_resolving_rights_to_user.insert(complaint_id=complaint_id,id_type=0,user_id=maintenance_secretary)\n\n\t\t\telif present_domain_name=='Miscellaneous':\n\t\t\t\tcmplt = db.complaints_made_to_user.insert(complaint_id=complaint_id,id_type=1,group_id=hostel_admin_grp)\n\t\t\t\tcmplt_rslv = db.complaints_with_resolving_rights_to_user.insert(complaint_id=complaint_id,id_type=1,group_id=hostel_admin_grp)\n\n\t\telif present_level_name=='Institute':\n\t\t\tconcern = db.complaints_concerning_user.insert(complaint_id=complaint_id,id_type=1,group_id=db.user_group_names(group_name='Institute').id)\n\t\t\tif present_domain_name=='Infrastructure':\n\t\t\t\tcmplt = db.complaints_made_to_user.insert(complaint_id=complaint_id,id_type=1,group_id=db.user_group_names(group_name='Institute Administration').id)\n\t\t\t\tcmplt_rslv = db.complaints_with_resolving_rights_to_user.insert(complaint_id=complaint_id,id_type=1,group_id=db.user_group_names(group_name='Institute Administration').id)\n\t\t\telif present_domain_name=='Administration':\n\t\t\t\tcmplt = db.complaints_made_to_user.insert(complaint_id=complaint_id,id_type=1,group_id=db.user_group_names(group_name='Institute Administration').id)\n\t\t\t\tcmplt_rslv = db.complaints_with_resolving_rights_to_user.insert(complaint_id=complaint_id,id_type=1,group_id=db.user_group_names(group_name='Institute Administration').id)\n\t\t\telif present_domain_name=='Canteen and Food Outlets':\n\t\t\t\tcmplt = db.complaints_made_to_user.insert(complaint_id=complaint_id,id_type=1,group_id=db.user_group_names(group_name='Institute Administration').id)\n\t\t\t\tcmplt_rslv = db.complaints_with_resolving_rights_to_user.insert(complaint_id=complaint_id,id_type=1,group_id=db.user_group_names(group_name='Institute Administration').id)\n\t\t\t\tcmplt = db.complaints_made_to_user.insert(complaint_id=complaint_id,id_type=1,group_id=db.user_group_names(group_name='BSW').id)\n\t\t\t\tcmplt_rslv = db.complaints_with_resolving_rights_to_user.insert(complaint_id=complaint_id,id_type=1,group_id=db.user_group_names(group_name='BSW').id)\n\t\t\telif present_domain_name=='Security':\n\t\t\t\tcmplt = db.complaints_made_to_user.insert(complaint_id=complaint_id,id_type=1,group_id=db.user_group_names(group_name='Institute Administration').id)\n\t\t\t\tcmplt_rslv = db.complaints_with_resolving_rights_to_user.insert(complaint_id=complaint_id,id_type=1,group_id=db.user_group_names(group_name='Institute Administration').id)\n\t\t\t\tcmplt = db.complaints_made_to_user.insert(complaint_id=complaint_id,id_type=1,group_id=db.user_group_names(group_name='BSW').id)\n\t\t\t\tcmplt_rslv = db.complaints_with_resolving_rights_to_user.insert(complaint_id=complaint_id,id_type=1,group_id=db.user_group_names(group_name='BSW').id)\n\t\t\telif present_domain_name=='Sports':\n\t\t\t\tcmplt = db.complaints_made_to_user.insert(complaint_id=complaint_id,id_type=1,group_id=db.user_group_names(group_name='BSA').id)\n\t\t\t\tcmplt_rslv = db.complaints_with_resolving_rights_to_user.insert(complaint_id=complaint_id,id_type=1,group_id=db.user_group_names(group_name='BSA').id)\n\t\t\telif present_domain_name=='Culture':\n\t\t\t\tcmplt = db.complaints_made_to_user.insert(complaint_id=complaint_id,id_type=1,group_id=db.user_group_names(group_name='BRCA').id)\n\t\t\t\tcmplt_rslv = db.complaints_with_resolving_rights_to_user.insert(complaint_id=complaint_id,id_type=1,group_id=db.user_group_names(group_name='BRCA').id)\n\t\t\telif present_domain_name=='Academics':\n\t\t\t\tcmplt = db.complaints_made_to_user.insert(complaint_id=complaint_id,id_type=1,group_id=db.user_group_names(group_name='Institute Administration').id)\n\t\t\t\tcmplt_rslv = db.complaints_with_resolving_rights_to_user.insert(complaint_id=complaint_id,id_type=1,group_id=db.user_group_names(group_name='Institute Administration').id)\n\t\t\telif present_domain_name=='Computer Services Centre':\n\t\t\t\tcmplt = db.complaints_made_to_user.insert(complaint_id=complaint_id,id_type=1,group_id=db.user_group_names(group_name='Computer Services Centre').id)\n\t\t\t\tcmplt_rslv = db.complaints_with_resolving_rights_to_user.insert(complaint_id=complaint_id,id_type=1,group_id=db.user_group_names(group_name='Computer Services Centre').id)\n\t\t\telif present_domain_name=='Maintenance':\n\t\t\t\tcmplt = db.complaints_made_to_user.insert(complaint_id=complaint_id,id_type=1,group_id=db.user_group_names(group_name='Institute Administration').id)\n\t\t\t\tcmplt_rslv = db.complaints_with_resolving_rights_to_user.insert(complaint_id=complaint_id,id_type=1,group_id=db.user_group_names(group_name='Institute Administration').id)\n\n\n\t\t\telif present_domain_name=='Miscellaneous':\n\t\t\t\tcmplt = db[db.complaints].validate_and_insert(**complaint_input)\n\n\n\t\telse:\treturn dict(status = 'TO do===Miscellaneous')\n\treturn locals()\n\n@request.restful()\ndef vote():\n\tresponse.view = 'generic.json'\n\tdef POST(*tmp_args,**vote_input):\n\t\treturn db[db.votes].validate_and_insert(**vote_input)\n\tdef GET(*tmp_args,**vote_input):\n\t\treturn db[db.votes].validate_and_insert(**vote_input)\n\treturn locals()\n\n@request.restful()\ndef follow():\n\tresponse.view = 'generic.json'\n\tdef POST(*tmp_args,**follow_input):\n\t\treturn db[db.bookmarks].validate_and_insert(**follow_input)\n\tdef GET(*tmp_args,**follow_input):\n\t\treturn db[db.bookmarks].validate_and_insert(**follow_input)\n\treturn locals()\n\n@request.restful()\ndef read():\n\tresponse.view = 'generic.json'\n\tdef POST(*tmp_args,**follow_input):\n\t\treturn db[db.complaint_read].validate_and_insert(**follow_input)\n\tdef GET(*tmp_args,**follow_input):\n\t\treturn db[db.complaint_read].validate_and_insert(**follow_input)\n\treturn locals()\n\n@request.restful()\ndef is_read():\n\tresponse.view = 'generic.json'\n\tdef GET(complaint_id):\n\t\tdata = db(db.complaint_read.complaint_id==complaint_id).select()\n\t\tif len(data)>0:\n\t\t\treturn dict(read = True)\n\t\telse:\n\t\t\treturn dict(read = False)\n    \treturn locals()\n\n@request.restful()\ndef redirect():\n\tresponse.view = 'generic.json'\n\tdef POST(*tmp_args,**follow_input):\n\t\tuserid_from = request.vars.redirect_from\n\t\tredirect_type = request.vars.redirect_to_type\n\t\tuserid_to = request.vars.redirect_to\n\t\tcomplaint_id = request.vars.complaint_id\n\t\tdone = db.executesql('UPDATE complaints SET redirected_to_user_id='+userid_to+', redirected_to_type='+redirect_type+', redirected_by_user_id='+userid_from+' WHERE id='+complaint_id+';')\n\t\tif(redirect_type==0):\n\t\t\tsolve_add = db.complaints_made_to_user.insert(complaint_id=complaint_id,id_type=0,user_id=userid_to)\n\t\telse:\n\t\t\tsolve_add = db.complaints_made_to_user.insert(complaint_id=complaint_id,id_type=1,group_id=userid_to)\n\t\treturn dict(success=True)\n\tdef GET(*tmp_args,**follow_input):\n\t\tuserid_from = request.vars.redirect_from\n\t\tredirect_type = request.vars.redirect_to_type\n\t\tuserid_to = request.vars.redirect_to\n\t\tcomplaint_id = request.vars.complaint_id\n\t\tdone = db.executesql('UPDATE complaints SET redirected_to_user_id='+userid_to+', redirected_to_type='+redirect_type+', redirected_by_user_id='+userid_from+' WHERE id='+complaint_id+';')\n\t\tif(redirect_type==0):\n\t\t\tsolve_add = db.complaints_made_to_user.insert(complaint_id=complaint_id,id_type=0,user_id=userid_to)\n\t\telse:\n\t\t\tsolve_add = db.complaints_made_to_user.insert(complaint_id=complaint_id,id_type=1,group_id=userid_to)\n\t\treturn dict(success=True)\n\treturn locals()\n\n\n@request.restful()\ndef comment():\n\tresponse.view = 'generic.json'\n\tdef POST(*tmp_args,**follow_input):\n\t\treturn db[db.comments].validate_and_insert(**follow_input)\n\tdef GET(*tmp_args,**follow_input):\n\t\treturn db[db.comments].validate_and_insert(**follow_input)\n\treturn locals()\n\n\n\nresponse._vars=response._caller(complaints)\n"
p7
sS'snapshot'
p8
(dp9
S'exception'
p10
(dp11
S'__hash__'
p12
S"<method-wrapper '__hash__' of exceptions.AttributeError object>"
p13
sS'__setattr__'
p14
S"<method-wrapper '__setattr__' of exceptions.AttributeError object>"
p15
sS'__reduce_ex__'
p16
S'<built-in method __reduce_ex__ of exceptions.AttributeError object>'
p17
sS'__getslice__'
p18
S"<method-wrapper '__getslice__' of exceptions.AttributeError object>"
p19
sS'__getitem__'
p20
S"<method-wrapper '__getitem__' of exceptions.AttributeError object>"
p21
sS'__setstate__'
p22
S'<built-in method __setstate__ of exceptions.AttributeError object>'
p23
sS'args'
p24
S'("\'NoneType\' object has no attribute \'id\'",)'
p25
sS'__reduce__'
p26
S'<built-in method __reduce__ of exceptions.AttributeError object>'
p27
sS'__str__'
p28
S"<method-wrapper '__str__' of exceptions.AttributeError object>"
p29
sS'__format__'
p30
S'<built-in method __format__ of exceptions.AttributeError object>'
p31
sS'__getattribute__'
p32
S"<method-wrapper '__getattribute__' of exceptions.AttributeError object>"
p33
sS'__class__'
p34
S"<type 'exceptions.AttributeError'>"
p35
sS'__unicode__'
p36
S'<built-in method __unicode__ of exceptions.AttributeError object>'
p37
sS'__delattr__'
p38
S"<method-wrapper '__delattr__' of exceptions.AttributeError object>"
p39
sS'__subclasshook__'
p40
S'<built-in method __subclasshook__ of type object>'
p41
sS'__repr__'
p42
S"<method-wrapper '__repr__' of exceptions.AttributeError object>"
p43
sS'__dict__'
p44
S'{}'
p45
sS'__sizeof__'
p46
S'<built-in method __sizeof__ of exceptions.AttributeError object>'
p47
sS'__doc__'
p48
S"'Attribute not found.'"
p49
sS'__init__'
p50
S"<method-wrapper '__init__' of exceptions.AttributeError object>"
p51
sS'__new__'
p52
S'<built-in method __new__ of type object>'
p53
ssS'evalue'
p54
S"'NoneType' object has no attribute 'id'"
p55
sS'request'
p56
cgluon.html
XML_unpickle
p57
(S's\xfbw\x00\x00<div><table><tr><td style="font-weight:bold;vertical-align:top;">ajax</td><td style="vertical-align:top;">:</td><td><div>False</div></td></tr><tr><td style="font-weight:bold;vertical-align:top;">application</td><td style="vertical-align:top;">:</td><td><div>GRS</div></td></tr><tr><td style="font-weight:bold;vertical-align:top;">args</td><td style="vertical-align:top;">:</td><td><div><table><tr><td><div>solve</div></td></tr></table></div></td></tr><tr><td style="font-weight:bold;vertical-align:top;">cid</td><td style="vertical-align:top;">:</td><td><div>None</div></td></tr><tr><td style="font-weight:bold;vertical-align:top;">client</td><td style="vertical-align:top;">:</td><td><div>127.0.0.1</div></td></tr><tr><td style="font-weight:bold;vertical-align:top;">controller</td><td style="vertical-align:top;">:</td><td><div>complaint</div></td></tr><tr><td style="font-weight:bold;vertical-align:top;">cookies</td><td style="vertical-align:top;">:</td><td><div><table><tr><td style="font-weight:bold;vertical-align:top;">gsScrollPos</td><td style="vertical-align:top;">:</td><td><div><table><tr><td style="font-weight:bold;vertical-align:top;">comment</td><td style="vertical-align:top;">:</td><td><div></div></td></tr><tr><td style="font-weight:bold;vertical-align:top;">domain</td><td style="vertical-align:top;">:</td><td><div></div></td></tr><tr><td style="font-weight:bold;vertical-align:top;">expires</td><td style="vertical-align:top;">:</td><td><div></div></td></tr><tr><td style="font-weight:bold;vertical-align:top;">httponly</td><td style="vertical-align:top;">:</td><td><div></div></td></tr><tr><td style="font-weight:bold;vertical-align:top;">max-age</td><td style="vertical-align:top;">:</td><td><div></div></td></tr><tr><td style="font-weight:bold;vertical-align:top;">path</td><td style="vertical-align:top;">:</td><td><div></div></td></tr><tr><td style="font-weight:bold;vertical-align:top;">secure</td><td style="vertical-align:top;">:</td><td><div></div></td></tr><tr><td style="font-weight:bold;vertical-align:top;">version</td><td style="vertical-align:top;">:</td><td><div></div></td></tr></table></div></td></tr><tr><td style="font-weight:bold;vertical-align:top;">session_id_admin</td><td style="vertical-align:top;">:</td><td><div>127.0.0.1-9942ebac-63c4-4689-80e7-24e695466b80<table><tr><td style="font-weight:bold;vertical-align:top;">comment</td><td style="vertical-align:top;">:</td><td><div></div></td></tr><tr><td style="font-weight:bold;vertical-align:top;">domain</td><td style="vertical-align:top;">:</td><td><div></div></td></tr><tr><td style="font-weight:bold;vertical-align:top;">expires</td><td style="vertical-align:top;">:</td><td><div></div></td></tr><tr><td style="font-weight:bold;vertical-align:top;">httponly</td><td style="vertical-align:top;">:</td><td><div></div></td></tr><tr><td style="font-weight:bold;vertical-align:top;">max-age</td><td style="vertical-align:top;">:</td><td><div></div></td></tr><tr><td style="font-weight:bold;vertical-align:top;">path</td><td style="vertical-align:top;">:</td><td><div></div></td></tr><tr><td style="font-weight:bold;vertical-align:top;">secure</td><td style="vertical-align:top;">:</td><td><div></div></td></tr><tr><td style="font-weight:bold;vertical-align:top;">version</td><td style="vertical-align:top;">:</td><td><div></div></td></tr></table></div></td></tr><tr><td style="font-weight:bold;vertical-align:top;">session_id_grievances</td><td style="vertical-align:top;">:</td><td><div>127.0.0.1-39bee78a-8e5b-4d17-ad2b-fa503b854ff7<table><tr><td style="font-weight:bold;vertical-align:top;">comment</td><td style="vertical-align:top;">:</td><td><div></div></td></tr><tr><td style="font-weight:bold;vertical-align:top;">domain</td><td style="vertical-align:top;">:</td><td><div></div></td></tr><tr><td style="font-weight:bold;vertical-align:top;">expires</td><td style="vertical-align:top;">:</td><td><div></div></td></tr><tr><td style="font-weight:bold;vertical-align:top;">httponly</td><td style="vertical-align:top;">:</td><td><div></div></td></tr><tr><td style="font-weight:bold;vertical-align:top;">max-age</td><td style="vertical-align:top;">:</td><td><div></div></td></tr><tr><td style="font-weight:bold;vertical-align:top;">path</td><td style="vertical-align:top;">:</td><td><div></div></td></tr><tr><td style="font-weight:bold;vertical-align:top;">secure</td><td style="vertical-align:top;">:</td><td><div></div></td></tr><tr><td style="font-weight:bold;vertical-align:top;">version</td><td style="vertical-align:top;">:</td><td><div></div></td></tr></table></div></td></tr><tr><td style="font-weight:bold;vertical-align:top;">session_id_grs</td><td style="vertical-align:top;">:</td><td><div>127.0.0.1-990191b5-a3c9-4aa3-9c86-dfb7898aca66<table><tr><td style="font-weight:bold;vertical-align:top;">comment</td><td style="vertical-align:top;">:</td><td><div></div></td></tr><tr><td style="font-weight:bold;vertical-align:top;">domain</td><td style="vertical-align:top;">:</td><td><div></div></td></tr><tr><td style="font-weight:bold;vertical-align:top;">expires</td><td style="vertical-align:top;">:</td><td><div></div></td></tr><tr><td style="font-weight:bold;vertical-align:top;">httponly</td><td style="vertical-align:top;">:</td><td><div></div></td></tr><tr><td style="font-weight:bold;vertical-align:top;">max-age</td><td style="vertical-align:top;">:</td><td><div></div></td></tr><tr><td style="font-weight:bold;vertical-align:top;">path</td><td style="vertical-align:top;">:</td><td><div></div></td></tr><tr><td style="font-weight:bold;vertical-align:top;">secure</td><td style="vertical-align:top;">:</td><td><div></div></td></tr><tr><td style="font-weight:bold;vertical-align:top;">version</td><td style="vertical-align:top;">:</td><td><div></div></td></tr></table></div></td></tr><tr><td style="font-weight:bold;vertical-align:top;">session_id_moodleplus</td><td style="vertical-align:top;">:</td><td><div>127.0.0.1-25637e95-9386-4286-82f2-1ebf4cebec13<table><tr><td style="font-weight:bold;vertical-align:top;">comment</td><td style="vertical-align:top;">:</td><td><div></div></td></tr><tr><td style="font-weight:bold;vertical-align:top;">domain</td><td style="vertical-align:top;">:</td><td><div></div></td></tr><tr><td style="font-weight:bold;vertical-align:top;">expires</td><td style="vertical-align:top;">:</td><td><div></div></td></tr><tr><td style="font-weight:bold;vertical-align:top;">httponly</td><td style="vertical-align:top;">:</td><td><div></div></td></tr><tr><td style="font-weight:bold;vertical-align:top;">max-age</td><td style="vertical-align:top;">:</td><td><div></div></td></tr><tr><td style="font-weight:bold;vertical-align:top;">path</td><td style="vertical-align:top;">:</td><td><div></div></td></tr><tr><td style="font-weight:bold;vertical-align:top;">secure</td><td style="vertical-align:top;">:</td><td><div></div></td></tr><tr><td style="font-weight:bold;vertical-align:top;">version</td><td style="vertical-align:top;">:</td><td><div></div></td></tr></table></div></td></tr><tr><td style="font-weight:bold;vertical-align:top;">session_id_sample1</td><td style="vertical-align:top;">:</td><td><div>127.0.0.1-69257c23-3e3c-4433-8daa-b0ad4e8056af<table><tr><td style="font-weight:bold;vertical-align:top;">comment</td><td style="vertical-align:top;">:</td><td><div></div></td></tr><tr><td style="font-weight:bold;vertical-align:top;">domain</td><td style="vertical-align:top;">:</td><td><div></div></td></tr><tr><td style="font-weight:bold;vertical-align:top;">expires</td><td style="vertical-align:top;">:</td><td><div></div></td></tr><tr><td style="font-weight:bold;vertical-align:top;">httponly</td><td style="vertical-align:top;">:</td><td><div></div></td></tr><tr><td style="font-weight:bold;vertical-align:top;">max-age</td><td style="vertical-align:top;">:</td><td><div></div></td></tr><tr><td style="font-weight:bold;vertical-align:top;">path</td><td style="vertical-align:top;">:</td><td><div></div></td></tr><tr><td style="font-weight:bold;vertical-align:top;">secure</td><td style="vertical-align:top;">:</td><td><div></div></td></tr><tr><td style="font-weight:bold;vertical-align:top;">version</td><td style="vertical-align:top;">:</td><td><div></div></td></tr></table></div></td></tr><tr><td style="font-weight:bold;vertical-align:top;">session_id_sample2</td><td style="vertical-align:top;">:</td><td><div>127.0.0.1-9b5af82d-a2f9-4dc5-9bb8-cace0eec1b34<table><tr><td style="font-weight:bold;vertical-align:top;">comment</td><td style="vertical-align:top;">:</td><td><div></div></td></tr><tr><td style="font-weight:bold;vertical-align:top;">domain</td><td style="vertical-align:top;">:</td><td><div></div></td></tr><tr><td style="font-weight:bold;vertical-align:top;">expires</td><td style="vertical-align:top;">:</td><td><div></div></td></tr><tr><td style="font-weight:bold;vertical-align:top;">httponly</td><td style="vertical-align:top;">:</td><td><div></div></td></tr><tr><td style="font-weight:bold;vertical-align:top;">max-age</td><td style="vertical-align:top;">:</td><td><div></div></td></tr><tr><td style="font-weight:bold;vertical-align:top;">path</td><td style="vertical-align:top;">:</td><td><div></div></td></tr><tr><td style="font-weight:bold;vertical-align:top;">secure</td><td style="vertical-align:top;">:</td><td><div></div></td></tr><tr><td style="font-weight:bold;vertical-align:top;">version</td><td style="vertical-align:top;">:</td><td><div></div></td></tr></table></div></td></tr><tr><td style="font-weight:bold;vertical-align:top;">session_id_welcome</td><td style="vertical-align:top;">:</td><td><div>127.0.0.1-cc85832d-24e8-4b25-aa32-fe585dbc91eb<table><tr><td style="font-weight:bold;vertical-align:top;">comment</td><td style="vertical-align:top;">:</td><td><div></div></td></tr><tr><td style="font-weight:bold;vertical-align:top;">domain</td><td style="vertical-align:top;">:</td><td><div></div></td></tr><tr><td style="font-weight:bold;vertical-align:top;">expires</td><td style="vertical-align:top;">:</td><td><div></div></td></tr><tr><td style="font-weight:bold;vertical-align:top;">httponly</td><td style="vertical-align:top;">:</td><td><div></div></td></tr><tr><td style="font-weight:bold;vertical-align:top;">max-age</td><td style="vertical-align:top;">:</td><td><div></div></td></tr><tr><td style="font-weight:bold;vertical-align:top;">path</td><td style="vertical-align:top;">:</td><td><div></div></td></tr><tr><td style="font-weight:bold;vertical-align:top;">secure</td><td style="vertical-align:top;">:</td><td><div></div></td></tr><tr><td style="font-weight:bold;vertical-align:top;">version</td><td style="vertical-align:top;">:</td><td><div></div></td></tr></table></div></td></tr></table></div></td></tr><tr><td style="font-weight:bold;vertical-align:top;">env</td><td style="vertical-align:top;">:</td><td><div><table><tr><td style="font-weight:bold;vertical-align:top;">HTTP_ACCEPT</td><td style="vertical-align:top;">:</td><td><div>text/html,application/xhtml+xml,application/xml;q=0.9,image/webp,*/*;q=0.8</div></td></tr><tr><td style="font-weight:bold;vertical-align:top;">HTTP_ACCEPT_ENCODING</td><td style="vertical-align:top;">:</td><td><div>gzip, deflate, sdch</div></td></tr><tr><td style="font-weight:bold;vertical-align:top;">HTTP_ACCEPT_LANGUAGE</td><td style="vertical-align:top;">:</td><td><div>en-US,en;q=0.8</div></td></tr><tr><td style="font-weight:bold;vertical-align:top;">HTTP_CONNECTION</td><td style="vertical-align:top;">:</td><td><div>keep-alive</div></td></tr><tr><td style="font-weight:bold;vertical-align:top;">HTTP_COOKIE</td><td style="vertical-align:top;">:</td><td><div>gsScrollPos=; gsScrollPos=; session_id_grievances=127.0.0.1-39bee78a-8e5b-4d17-ad2b-fa503b854ff7; session_id_sample1=127.0.0.1-69257c23-3e3c-4433-8daa-b0ad4e8056af; _ga=GA1.1.333590026.1458794726; session_id_sample2=127.0.0.1-9b5af82d-a2f9-4dc5-9bb8-cace0eec1b34; session_id_moodleplus=127.0.0.1-25637e95-9386-4286-82f2-1ebf4cebec13; session_id_welcome=127.0.0.1-cc85832d-24e8-4b25-aa32-fe585dbc91eb; session_id_grs=127.0.0.1-990191b5-a3c9-4aa3-9c86-dfb7898aca66; session_id_admin=127.0.0.1-9942ebac-63c4-4689-80e7-24e695466b80</div></td></tr><tr><td style="font-weight:bold;vertical-align:top;">HTTP_HOST</td><td style="vertical-align:top;">:</td><td><div>127.0.0.1:8000</div></td></tr><tr><td style="font-weight:bold;vertical-align:top;">HTTP_UPGRADE_INSECURE_REQUESTS</td><td style="vertical-align:top;">:</td><td><div>1</div></td></tr><tr><td style="font-weight:bold;vertical-align:top;">HTTP_USER_AGENT</td><td style="vertical-align:top;">:</td><td><div>Mozilla/5.0 (X11; Linux x86_64) AppleWebKit/537.36 (KHTML, like Gecko) Ubuntu Chromium/48.0.2564.116 Chrome/48.0.2564.116 Safari/537.36</div></td></tr><tr><td style="font-weight:bold;vertical-align:top;">PATH_INFO</td><td style="vertical-align:top;">:</td><td><div>/GRS/complaint/complaints/solve.json</div></td></tr><tr><td style="font-weight:bold;vertical-align:top;">QUERY_STRING</td><td style="vertical-align:top;">:</td><td><div>user_id=4</div></td></tr><tr><td style="font-weight:bold;vertical-align:top;">REMOTE_ADDR</td><td style="vertical-align:top;">:</td><td><div>127.0.0.1</div></td></tr><tr><td style="font-weight:bold;vertical-align:top;">REMOTE_PORT</td><td style="vertical-align:top;">:</td><td><div>36838</div></td></tr><tr><td style="font-weight:bold;vertical-align:top;">REQUEST_METHOD</td><td style="vertical-align:top;">:</td><td><div>GET</div></td></tr><tr><td style="font-weight:bold;vertical-align:top;">SCRIPT_NAME</td><td style="vertical-align:top;">:</td><td><div></div></td></tr><tr><td style="font-weight:bold;vertical-align:top;">SERVER_NAME</td><td style="vertical-align:top;">:</td><td><div>user-Z5WAH</div></td></tr><tr><td style="font-weight:bold;vertical-align:top;">SERVER_PORT</td><td style="vertical-align:top;">:</td><td><div>8000</div></td></tr><tr><td style="font-weight:bold;vertical-align:top;">SERVER_PROTOCOL</td><td style="vertical-align:top;">:</td><td><div>HTTP/1.1</div></td></tr><tr><td style="font-weight:bold;vertical-align:top;">SERVER_SOFTWARE</td><td style="vertical-align:top;">:</td><td><div>Rocket 1.2.6</div></td></tr><tr><td style="font-weight:bold;vertical-align:top;">app_folders</td><td style="vertical-align:top;">:</td><td><div>set([&#x27;/home/user/Local Disk E/COP290/assignment2/GRS_Grievances_Resolution_System/web2py/applications/welcome/&#x27;, &#x27;/home/user/Local Disk E/COP290/assignment2/GRS_Grievances_Resolution_System/web2py/applications/GRS/&#x27;, &#x27;/home/user/Local Disk E/COP290/assignment2/GRS_Grievances_Resolution_System/web2py/applications/admin/&#x27;])</div></td></tr><tr><td style="font-weight:bold;vertical-align:top;">applications_parent</td><td style="vertical-align:top;">:</td><td><div>/home/user/Local Disk E/COP290/assignment2/GRS_Grievances_Resolution_System/web2py</div></td></tr><tr><td style="font-weight:bold;vertical-align:top;">cmd_args</td><td style="vertical-align:top;">:</td><td><div><table></table></div></td></tr><tr><td style="font-weight:bold;vertical-align:top;">cmd_options</td><td style="vertical-align:top;">:</td><td><div>&lt;Values at 0x7f774583a908: {&#x27;verbose&#x27;: False, &#x27;ip&#x27;: &#x27;127.0.0.1&#x27;, &#x27;debuglevel&#x27;: 30, &#x27;with_scheduler&#x27;: False, &#x27;shutdown_timeout&#x27;: 5, &#x27;taskbar&#x27;: False, &#x27;with_coverage&#x27;: False, &#x27;pid_filename&#x27;: &#x27;httpserver.pid&#x27;, &#x27;maxthreads&#x27;: None, &#x27;softcron&#x27;: False, &#x27;server_name&#x27;: &#x27;user-Z5WAH&#x27;, &#x27;bpython&#x27;: False, &#x27;nogui&#x27;: False, &#x27;port&#x27;: 8000, &#x27;print_errors&#x27;: False, &#x27;extcron&#x27;: False, &#x27;runcron&#x27;: False, &#x27;run_system_tests&#x27;: False, &#x27;test&#x27;: None, &#x27;folder&#x27;: &#x27;/home/user/Local Disk E/COP290/assignment2/GRS_Grievances_Resolution_System/web2py&#x27;, &#x27;config&#x27;: &#x27;&#x27;, &#x27;minthreads&#x27;: None, &#x27;shell&#x27;: None, &#x27;run&#x27;: &#x27;&#x27;, &#x27;log_filename&#x27;: &#x27;httpserver.log&#x27;, &#x27;profiler_dir&#x27;: None, &#x27;args&#x27;: [&#x27;&#x27;], &#x27;socket_timeout&#x27;: 5, &#x27;ssl_ca_certificate&#x27;: None, &#x27;scheduler&#x27;: None, &#x27;interfaces&#x27;: None, &#x27;ssl_private_key&#x27;: &#x27;&#x27;, &#x27;gae&#x27;: None, &#x27;password&#x27;: &#x27;******&#x27;, &#x27;request_queue_size&#x27;: 5, &#x27;ssl_certificate&#x27;: &#x27;&#x27;, &#x27;cronjob&#x27;: False, &#x27;numthreads&#x27;: None, &#x27;quiet&#x27;: False, &#x27;import_models&#x27;: False, &#x27;timeout&#x27;: 10, &#x27;plain&#x27;: False, &#x27;nobanner&#x27;: False}&gt;</div></td></tr><tr><td style="font-weight:bold;vertical-align:top;">db_sessions</td><td style="vertical-align:top;">:</td><td><div>set([])</div></td></tr><tr><td style="font-weight:bold;vertical-align:top;">debugging</td><td style="vertical-align:top;">:</td><td><div>False</div></td></tr><tr><td style="font-weight:bold;vertical-align:top;">gluon_parent</td><td style="vertical-align:top;">:</td><td><div>/home/user/Local Disk E/COP290/assignment2/GRS_Grievances_Resolution_System/web2py</div></td></tr><tr><td style="font-weight:bold;vertical-align:top;">http_accept</td><td style="vertical-align:top;">:</td><td><div>text/html,application/xhtml+xml,application/xml;q=0.9,image/webp,*/*;q=0.8</div></td></tr><tr><td style="font-weight:bold;vertical-align:top;">http_accept_encoding</td><td style="vertical-align:top;">:</td><td><div>gzip, deflate, sdch</div></td></tr><tr><td style="font-weight:bold;vertical-align:top;">http_accept_language</td><td style="vertical-align:top;">:</td><td><div>en-US,en;q=0.8</div></td></tr><tr><td style="font-weight:bold;vertical-align:top;">http_connection</td><td style="vertical-align:top;">:</td><td><div>keep-alive</div></td></tr><tr><td style="font-weight:bold;vertical-align:top;">http_cookie</td><td style="vertical-align:top;">:</td><td><div>gsScrollPos=; gsScrollPos=; session_id_grievances=127.0.0.1-39bee78a-8e5b-4d17-ad2b-fa503b854ff7; session_id_sample1=127.0.0.1-69257c23-3e3c-4433-8daa-b0ad4e8056af; _ga=GA1.1.333590026.1458794726; session_id_sample2=127.0.0.1-9b5af82d-a2f9-4dc5-9bb8-cace0eec1b34; session_id_moodleplus=127.0.0.1-25637e95-9386-4286-82f2-1ebf4cebec13; session_id_welcome=127.0.0.1-cc85832d-24e8-4b25-aa32-fe585dbc91eb; session_id_grs=127.0.0.1-990191b5-a3c9-4aa3-9c86-dfb7898aca66; session_id_admin=127.0.0.1-9942ebac-63c4-4689-80e7-24e695466b80</div></td></tr><tr><td style="font-weight:bold;vertical-align:top;">http_host</td><td style="vertical-align:top;">:</td><td><div>127.0.0.1:8000</div></td></tr><tr><td style="font-weight:bold;vertical-align:top;">http_upgrade_insecure_requests</td><td style="vertical-align:top;">:</td><td><div>1</div></td></tr><tr><td style="font-weight:bold;vertical-align:top;">http_user_agent</td><td style="vertical-align:top;">:</td><td><div>Mozilla/5.0 (X11; Linux x86_64) AppleWebKit/537.36 (KHTML, like Gecko) Ubuntu Chromium/48.0.2564.116 Chrome/48.0.2564.116 Safari/537.36</div></td></tr><tr><td style="font-weight:bold;vertical-align:top;">is_jython</td><td style="vertical-align:top;">:</td><td><div>False</div></td></tr><tr><td style="font-weight:bold;vertical-align:top;">is_pypy</td><td style="vertical-align:top;">:</td><td><div>False</div></td></tr><tr><td style="font-weight:bold;vertical-align:top;">is_source</td><td style="vertical-align:top;">:</td><td><div>True</div></td></tr><tr><td style="font-weight:bold;vertical-align:top;">local_hosts</td><td style="vertical-align:top;">:</td><td><div><table><tr><td><div>user-Z5WAH</div></td></tr><tr><td><div>::1</div></td></tr><tr><td><div>127.0.1.1</div></td></tr><tr><td><div>::ffff:127.0.0.1</div></td></tr><tr><td><div>127.0.0.1</div></td></tr></table></div></td></tr><tr><td style="font-weight:bold;vertical-align:top;">path_info</td><td style="vertical-align:top;">:</td><td><div>/GRS/complaint/complaints/solve.json</div></td></tr><tr><td style="font-weight:bold;vertical-align:top;">query_string</td><td style="vertical-align:top;">:</td><td><div>user_id=4</div></td></tr><tr><td style="font-weight:bold;vertical-align:top;">remote_addr</td><td style="vertical-align:top;">:</td><td><div>127.0.0.1</div></td></tr><tr><td style="font-weight:bold;vertical-align:top;">remote_port</td><td style="vertical-align:top;">:</td><td><div>36838</div></td></tr><tr><td style="font-weight:bold;vertical-align:top;">request_method</td><td style="vertical-align:top;">:</td><td><div>GET</div></td></tr><tr><td style="font-weight:bold;vertical-align:top;">request_uri</td><td style="vertical-align:top;">:</td><td><div>/GRS/complaint/complaints/solve.json?user_id=4</div></td></tr><tr><td style="font-weight:bold;vertical-align:top;">script_name</td><td style="vertical-align:top;">:</td><td><div></div></td></tr><tr><td style="font-weight:bold;vertical-align:top;">server_name</td><td style="vertical-align:top;">:</td><td><div>user-Z5WAH</div></td></tr><tr><td style="font-weight:bold;vertical-align:top;">server_port</td><td style="vertical-align:top;">:</td><td><div>8000</div></td></tr><tr><td style="font-weight:bold;vertical-align:top;">server_protocol</td><td style="vertical-align:top;">:</td><td><div>HTTP/1.1</div></td></tr><tr><td style="font-weight:bold;vertical-align:top;">server_software</td><td style="vertical-align:top;">:</td><td><div>Rocket 1.2.6</div></td></tr><tr><td style="font-weight:bold;vertical-align:top;">web2py_path</td><td style="vertical-align:top;">:</td><td><div>/home/user/Local Disk E/COP290/assignment2/GRS_Grievances_Resolution_System/web2py</div></td></tr><tr><td style="font-weight:bold;vertical-align:top;">web2py_version</td><td style="vertical-align:top;">:</td><td><div>2.14.2-stable+timestamp.2016.03.24.22.47.49</div></td></tr><tr><td style="font-weight:bold;vertical-align:top;">wsgi.errors</td><td style="vertical-align:top;">:</td><td><div>&lt;open file &#x27;&lt;stderr&gt;&#x27;, mode &#x27;w&#x27; at 0x7f774a1111e0&gt;</div></td></tr><tr><td style="font-weight:bold;vertical-align:top;">wsgi.file_wrapper</td><td style="vertical-align:top;">:</td><td><div>&lt;class wsgiref.util.FileWrapper at 0x7f774556fc80&gt;</div></td></tr><tr><td style="font-weight:bold;vertical-align:top;">wsgi.input</td><td style="vertical-align:top;">:</td><td><div>&lt;socket._fileobject object at 0x7f77142ea9d0&gt;</div></td></tr><tr><td style="font-weight:bold;vertical-align:top;">wsgi.multiprocess</td><td style="vertical-align:top;">:</td><td><div>False</div></td></tr><tr><td style="font-weight:bold;vertical-align:top;">wsgi.multithread</td><td style="vertical-align:top;">:</td><td><div>True</div></td></tr><tr><td style="font-weight:bold;vertical-align:top;">wsgi.run_once</td><td style="vertical-align:top;">:</td><td><div>False</div></td></tr><tr><td style="font-weight:bold;vertical-align:top;">wsgi.url_scheme</td><td style="vertical-align:top;">:</td><td><div>http</div></td></tr><tr><td style="font-weight:bold;vertical-align:top;">wsgi.version</td><td style="vertical-align:top;">:</td><td><div><table><tr><td><div>1</div></td></tr><tr><td><div>0</div></td></tr></table></div></td></tr><tr><td style="font-weight:bold;vertical-align:top;">wsgi_errors</td><td style="vertical-align:top;">:</td><td><div>&lt;open file &#x27;&lt;stderr&gt;&#x27;, mode &#x27;w&#x27; at 0x7f774a1111e0&gt;</div></td></tr><tr><td style="font-weight:bold;vertical-align:top;">wsgi_file_wrapper</td><td style="vertical-align:top;">:</td><td><div>&lt;class wsgiref.util.FileWrapper at 0x7f774556fc80&gt;</div></td></tr><tr><td style="font-weight:bold;vertical-align:top;">wsgi_input</td><td style="vertical-align:top;">:</td><td><div>&lt;socket._fileobject object at 0x7f77142ea9d0&gt;</div></td></tr><tr><td style="font-weight:bold;vertical-align:top;">wsgi_multiprocess</td><td style="vertical-align:top;">:</td><td><div>False</div></td></tr><tr><td style="font-weight:bold;vertical-align:top;">wsgi_multithread</td><td style="vertical-align:top;">:</td><td><div>True</div></td></tr><tr><td style="font-weight:bold;vertical-align:top;">wsgi_run_once</td><td style="vertical-align:top;">:</td><td><div>False</div></td></tr><tr><td style="font-weight:bold;vertical-align:top;">wsgi_url_scheme</td><td style="vertical-align:top;">:</td><td><div>http</div></td></tr><tr><td style="font-weight:bold;vertical-align:top;">wsgi_version</td><td style="vertical-align:top;">:</td><td><div><table><tr><td><div>1</div></td></tr><tr><td><div>0</div></td></tr></table></div></td></tr></table></div></td></tr><tr><td style="font-weight:bold;vertical-align:top;">extension</td><td style="vertical-align:top;">:</td><td><div>json</div></td></tr><tr><td style="font-weight:bold;vertical-align:top;">folder</td><td style="vertical-align:top;">:</td><td><div>/home/user/Local Disk E/COP290/assignment2/GRS_Grievances_Resolution_System/web2py/applications/GRS/</div></td></tr><tr><td style="font-weight:bold;vertical-align:top;">function</td><td style="vertical-align:top;">:</td><td><div>complaints</div></td></tr><tr><td style="font-weight:bold;vertical-align:top;">global_settings</td><td style="vertical-align:top;">:</td><td><div><table><tr><td style="font-weight:bold;vertical-align:top;">app_folders</td><td style="vertical-align:top;">:</td><td><div>set([&#x27;/home/user/Local Disk E/COP290/assignment2/GRS_Grievances_Resolution_System/web2py/applications/welcome/&#x27;, &#x27;/home/user/Local Disk E/COP290/assignment2/GRS_Grievances_Resolution_System/web2py/applications/GRS/&#x27;, &#x27;/home/user/Local Disk E/COP290/assignment2/GRS_Grievances_Resolution_System/web2py/applications/admin/&#x27;])</div></td></tr><tr><td style="font-weight:bold;vertical-align:top;">applications_parent</td><td style="vertical-align:top;">:</td><td><div>/home/user/Local Disk E/COP290/assignment2/GRS_Grievances_Resolution_System/web2py</div></td></tr><tr><td style="font-weight:bold;vertical-align:top;">cmd_args</td><td style="vertical-align:top;">:</td><td><div><table></table></div></td></tr><tr><td style="font-weight:bold;vertical-align:top;">cmd_options</td><td style="vertical-align:top;">:</td><td><div>&lt;Values at 0x7f774583a908: {&#x27;verbose&#x27;: False, &#x27;ip&#x27;: &#x27;127.0.0.1&#x27;, &#x27;debuglevel&#x27;: 30, &#x27;with_scheduler&#x27;: False, &#x27;shutdown_timeout&#x27;: 5, &#x27;taskbar&#x27;: False, &#x27;with_coverage&#x27;: False, &#x27;pid_filename&#x27;: &#x27;httpserver.pid&#x27;, &#x27;maxthreads&#x27;: None, &#x27;softcron&#x27;: False, &#x27;server_name&#x27;: &#x27;user-Z5WAH&#x27;, &#x27;bpython&#x27;: False, &#x27;nogui&#x27;: False, &#x27;port&#x27;: 8000, &#x27;print_errors&#x27;: False, &#x27;extcron&#x27;: False, &#x27;runcron&#x27;: False, &#x27;run_system_tests&#x27;: False, &#x27;test&#x27;: None, &#x27;folder&#x27;: &#x27;/home/user/Local Disk E/COP290/assignment2/GRS_Grievances_Resolution_System/web2py&#x27;, &#x27;config&#x27;: &#x27;&#x27;, &#x27;minthreads&#x27;: None, &#x27;shell&#x27;: None, &#x27;run&#x27;: &#x27;&#x27;, &#x27;log_filename&#x27;: &#x27;httpserver.log&#x27;, &#x27;profiler_dir&#x27;: None, &#x27;args&#x27;: [&#x27;&#x27;], &#x27;socket_timeout&#x27;: 5, &#x27;ssl_ca_certificate&#x27;: None, &#x27;scheduler&#x27;: None, &#x27;interfaces&#x27;: None, &#x27;ssl_private_key&#x27;: &#x27;&#x27;, &#x27;gae&#x27;: None, &#x27;password&#x27;: &#x27;******&#x27;, &#x27;request_queue_size&#x27;: 5, &#x27;ssl_certificate&#x27;: &#x27;&#x27;, &#x27;cronjob&#x27;: False, &#x27;numthreads&#x27;: None, &#x27;quiet&#x27;: False, &#x27;import_models&#x27;: False, &#x27;timeout&#x27;: 10, &#x27;plain&#x27;: False, &#x27;nobanner&#x27;: False}&gt;</div></td></tr><tr><td style="font-weight:bold;vertical-align:top;">db_sessions</td><td style="vertical-align:top;">:</td><td><div>set([])</div></td></tr><tr><td style="font-weight:bold;vertical-align:top;">debugging</td><td style="vertical-align:top;">:</td><td><div>False</div></td></tr><tr><td style="font-weight:bold;vertical-align:top;">gluon_parent</td><td style="vertical-align:top;">:</td><td><div>/home/user/Local Disk E/COP290/assignment2/GRS_Grievances_Resolution_System/web2py</div></td></tr><tr><td style="font-weight:bold;vertical-align:top;">is_jython</td><td style="vertical-align:top;">:</td><td><div>False</div></td></tr><tr><td style="font-weight:bold;vertical-align:top;">is_pypy</td><td style="vertical-align:top;">:</td><td><div>False</div></td></tr><tr><td style="font-weight:bold;vertical-align:top;">is_source</td><td style="vertical-align:top;">:</td><td><div>True</div></td></tr><tr><td style="font-weight:bold;vertical-align:top;">local_hosts</td><td style="vertical-align:top;">:</td><td><div><table><tr><td><div>user-Z5WAH</div></td></tr><tr><td><div>::1</div></td></tr><tr><td><div>127.0.1.1</div></td></tr><tr><td><div>::ffff:127.0.0.1</div></td></tr><tr><td><div>127.0.0.1</div></td></tr></table></div></td></tr><tr><td style="font-weight:bold;vertical-align:top;">web2py_version</td><td style="vertical-align:top;">:</td><td><div>2.14.2-stable+timestamp.2016.03.24.22.47.49</div></td></tr></table></div></td></tr><tr><td style="font-weight:bold;vertical-align:top;">is_https</td><td style="vertical-align:top;">:</td><td><div>False</div></td></tr><tr><td style="font-weight:bold;vertical-align:top;">is_local</td><td style="vertical-align:top;">:</td><td><div>True</div></td></tr><tr><td style="font-weight:bold;vertical-align:top;">is_restful</td><td style="vertical-align:top;">:</td><td><div>True</div></td></tr><tr><td style="font-weight:bold;vertical-align:top;">is_scheduler</td><td style="vertical-align:top;">:</td><td><div>False</div></td></tr><tr><td style="font-weight:bold;vertical-align:top;">is_shell</td><td style="vertical-align:top;">:</td><td><div>False</div></td></tr><tr><td style="font-weight:bold;vertical-align:top;">now</td><td style="vertical-align:top;">:</td><td><div>datetime.datetime(2016, 3, 28, 23, 5, 23, 740663)</div></td></tr><tr><td style="font-weight:bold;vertical-align:top;">raw_args</td><td style="vertical-align:top;">:</td><td><div>solve.json</div></td></tr><tr><td style="font-weight:bold;vertical-align:top;">raw_extension</td><td style="vertical-align:top;">:</td><td><div>None</div></td></tr><tr><td style="font-weight:bold;vertical-align:top;">url</td><td style="vertical-align:top;">:</td><td><div>/GRS/complaint/complaints/solve.json</div></td></tr><tr><td style="font-weight:bold;vertical-align:top;">utcnow</td><td style="vertical-align:top;">:</td><td><div>datetime.datetime(2016, 3, 28, 17, 35, 23, 740693)</div></td></tr><tr><td style="font-weight:bold;vertical-align:top;">wsgi</td><td style="vertical-align:top;">:</td><td><div>&lt;gluon.main.LazyWSGI object at 0x7f7747d24a50&gt;</div></td></tr></table></div>'
tRp58
sS'frames'
p59
(lp60
(dp61
S'file'
p62
S'/home/user/Local Disk E/COP290/assignment2/GRS_Grievances_Resolution_System/web2py/gluon/restricted.py'
p63
sS'dump'
p64
(dp65
S'environment'
p66
S"{'A': <class 'gluon.html.A'>, 'ANY_OF': <class 'gluon.validators.ANY_OF'>, 'ASSIGNJS': <function ASSIGNJS>, 'AppConfig': <function AppConfig>, 'Auth': <class 'gluon.tools.Auth'>, 'B': <class 'gluon.html.B'>, 'BEAUTIFY': <class 'gluon.html.BEAUTIFY'>, 'BODY': <class 'gluon.html.BODY'>, 'BR': <class 'gluon.html.BR'>, 'BUTTON': <class 'gluon.html.BUTTON'>, ...}"
p67
sS'ccode'
p68
S'<code object <module> at 0x7f77143de2b0, file "/...plications/GRS/controllers/complaint.py", line 1>'
p69
ssS'lnum'
p70
I227
sS'lines'
p71
(dp72
I224
S'            ccode = code'
p73
sI225
S'        else:'
p74
sI226
S'            ccode = compile2(code, layer)'
p75
sI227
S'        exec ccode in environment'
p76
sI228
S'    except HTTP:'
p77
sI229
S'        raise'
p78
sI230
S'    except RestrictedError:'
p79
sI231
S'        # do not encapsulate (obfuscate) the original RestrictedError'
p80
sI222
S'    try:'
p81
sI223
S'        if isinstance(code, types.CodeType):'
p82
ssS'call'
p83
S"(code='@request.restful()\\ndef details():\\n\\tresponse.view...)\\n\\n\\n\\nresponse._vars=response._caller(complaints)\\n', environment={'A': <class 'gluon.html.A'>, 'ANY_OF': <class 'gluon.validators.ANY_OF'>, 'ASSIGNJS': <function ASSIGNJS>, 'AppConfig': <function AppConfig>, 'Auth': <class 'gluon.tools.Auth'>, 'B': <class 'gluon.html.B'>, 'BEAUTIFY': <class 'gluon.html.BEAUTIFY'>, 'BODY': <class 'gluon.html.BODY'>, 'BR': <class 'gluon.html.BR'>, 'BUTTON': <class 'gluon.html.BUTTON'>, ...}, layer='/home/user/Local Disk E/COP290/assignment2/GRS_G.../web2py/applications/GRS/controllers/complaint.py')"
p84
sS'func'
p85
S'restricted'
p86
sa(dp87
g62
S'/home/user/Local Disk E/COP290/assignment2/GRS_Grievances_Resolution_System/web2py/applications/GRS/controllers/complaint.py'
p88
sg64
(dp89
sg70
I279
sg71
(dp90
I268
S'@request.restful()'
p91
sI269
S'def comment():'
p92
sI270
S"\tresponse.view = 'generic.json'"
p93
sI271
S'\tdef POST(*tmp_args,**follow_input):'
p94
sI272
S'\t\treturn db[db.comments].validate_and_insert(**follow_input)'
p95
sI273
S'\tdef GET(*tmp_args,**follow_input):'
p96
sI274
S'\t\treturn db[db.comments].validate_and_insert(**follow_input)'
p97
sI275
S'\treturn locals()'
p98
sI276
S''
sI277
S''
ssg83
S'()'
p99
sg85
S'<module>'
p100
sa(dp101
g62
S'/home/user/Local Disk E/COP290/assignment2/GRS_Grievances_Resolution_System/web2py/gluon/globals.py'
p102
sg64
(dp103
S'self'
p104
S'undefined'
p105
sS'f'
S'<function complaints>'
p106
ssg70
I417
sg71
(dp107
I416
S'        self._vars = None'
p108
sI417
S'        self._caller = lambda f: f()'
p109
sI418
S'        self._view_environment = None'
p110
sI419
S'        self._custom_commit = None'
p111
sI420
S'        self._custom_rollback = None'
p112
sI421
S"        self.generic_patterns = ['*']"
p113
sI412
S"        self.flash = ''            # used by the default view layout"
p114
sI413
S'        self.meta = Storage()      # used by web2py_ajax.html'
p115
sI414
S'        self.menu = []             # used by the default view layout'
p116
sI415
S'        self.files = []            # used by web2py_ajax.html'
p117
ssg83
S'(f=<function complaints>)'
p118
sg85
S'<lambda>'
p119
sa(dp120
g62
S'/home/user/Local Disk E/COP290/assignment2/GRS_Grievances_Resolution_System/web2py/gluon/globals.py'
p121
sg64
(dp122
S'rest_action'
p123
S'<function GET>'
p124
sS'res'
p125
g105
sS'request.args'
p126
S"['solve']"
p127
sS'request'
p128
S"<Storage {'_vars': <Storage {'user_id': '4'}>, '...ces_Resolution_System/web2py/applications/GRS/'}>"
p129
sS'request.vars'
p130
S"<Storage {'user_id': '4'}>"
p131
ssg70
I380
sg71
(dp132
I384
S'                except TypeError, e:'
p133
sI375
S'                rest_action = _action().get(method, None)'
p134
sI376
S'                if not (rest_action and method == method.upper()'
p135
sI377
S'                        and callable(rest_action)):'
p136
sI378
S'                    raise HTTP(405, "method not allowed")'
p137
sI379
S'                try:'
p138
sI380
S'                    res = rest_action(*request.args, **request.vars)'
p139
sI381
S'                    if is_json and not isinstance(res, str):'
p140
sI382
S'                        res = json(res)'
p141
sI383
S'                    return res'
p142
ssg83
S'(_action=<function complaints>, *a=(), **b={})'
p143
sg85
S'f'
sa(dp144
g62
S'/home/user/Local Disk E/COP290/assignment2/GRS_Grievances_Resolution_System/web2py/applications/GRS/controllers/complaint.py'
p145
sg64
(dp146
S').id'
p147
g105
sS'user_id'
p148
S"'4'"
p149
sS'builtinid'
p150
S'<built-in function id>'
p151
sS'user_id1'
p152
g105
sS'global db'
p153
S'<DAL uri="sqlite://storage.sqlite">'
p154
sS'db.users'
p155
S'<Table users (id, username, password, registrati...ree_name, hostel_id, picture_id, year_of_degree)>'
p156
ssg70
I73
sg71
(dp157
I68
S'\t\t\t\t\tret.append(all_made[index])'
p158
sI69
S'\t\t\t\telse:'
p159
sI70
S'\t\t\t\t\tall_members = db(db.group_members.group_id==to_group).select()'
p160
sI71
S'\t\t\t\t\tfor index in range(len(all_members)):'
p161
sI72
S'\t\t\t\t\t\tuser1 = db.users(id=all_members[index].user_id).id'
p162
sI73
S'\t\t\t\t\t\tuser_id1 = db.users(id=user_id).id'
p163
sI74
S'\t\t\t\t\t\tif(user1==user_id1):'
p164
sI75
S'\t\t\t\t\t\t\tret.append(all_made[index])'
p165
sI76
S'\t\t\treturn dict(data = ret)'
p166
sI77
S'\treturn locals()'
p167
ssg83
S"(complaint_section='solve', user_id='4')"
p168
sg85
S'GET'
p169
sasS'pyver'
p170
S'Python 2.7.10: /usr/bin/python (prefix: /usr)'
p171
sS'session'
p172
g57
(S's\x1a\x00\x00\x00<div><table></table></div>'
tRp173
sS'etype'
p174
S"<type 'exceptions.AttributeError'>"
p175
sS'date'
p176
S'Mon Mar 28 23:05:24 2016'
p177
sS'response'
p178
g57
(S's\xb6>\x00\x00<div><table><tr><td style="font-weight:bold;vertical-align:top;">body</td><td style="vertical-align:top;">:</td><td><div>&lt;cStringIO.StringO object at 0x7f7740489148&gt;</div></td></tr><tr><td style="font-weight:bold;vertical-align:top;">cookies</td><td style="vertical-align:top;">:</td><td><div><table><tr><td style="font-weight:bold;vertical-align:top;">session_id_grs</td><td style="vertical-align:top;">:</td><td><div>127.0.0.1-d49da2a1-2392-42e2-9b69-1732b23f15b0<table><tr><td style="font-weight:bold;vertical-align:top;">comment</td><td style="vertical-align:top;">:</td><td><div></div></td></tr><tr><td style="font-weight:bold;vertical-align:top;">domain</td><td style="vertical-align:top;">:</td><td><div></div></td></tr><tr><td style="font-weight:bold;vertical-align:top;">expires</td><td style="vertical-align:top;">:</td><td><div></div></td></tr><tr><td style="font-weight:bold;vertical-align:top;">httponly</td><td style="vertical-align:top;">:</td><td><div></div></td></tr><tr><td style="font-weight:bold;vertical-align:top;">max-age</td><td style="vertical-align:top;">:</td><td><div></div></td></tr><tr><td style="font-weight:bold;vertical-align:top;">path</td><td style="vertical-align:top;">:</td><td><div>/</div></td></tr><tr><td style="font-weight:bold;vertical-align:top;">secure</td><td style="vertical-align:top;">:</td><td><div></div></td></tr><tr><td style="font-weight:bold;vertical-align:top;">version</td><td style="vertical-align:top;">:</td><td><div></div></td></tr></table></div></td></tr></table></div></td></tr><tr><td style="font-weight:bold;vertical-align:top;">delimiters</td><td style="vertical-align:top;">:</td><td><div><table><tr><td><div>{{</div></td></tr><tr><td><div>}}</div></td></tr></table></div></td></tr><tr><td style="font-weight:bold;vertical-align:top;">files</td><td style="vertical-align:top;">:</td><td><div><table></table></div></td></tr><tr><td style="font-weight:bold;vertical-align:top;">flash</td><td style="vertical-align:top;">:</td><td><div></div></td></tr><tr><td style="font-weight:bold;vertical-align:top;">form_label_separator</td><td style="vertical-align:top;">:</td><td><div></div></td></tr><tr><td style="font-weight:bold;vertical-align:top;">formstyle</td><td style="vertical-align:top;">:</td><td><div>bootstrap3_inline</div></td></tr><tr><td style="font-weight:bold;vertical-align:top;">generic_patterns</td><td style="vertical-align:top;">:</td><td><div><table><tr><td><div>*</div></td></tr></table></div></td></tr><tr><td style="font-weight:bold;vertical-align:top;">google_analytics_id</td><td style="vertical-align:top;">:</td><td><div>None</div></td></tr><tr><td style="font-weight:bold;vertical-align:top;">headers</td><td style="vertical-align:top;">:</td><td><div><table><tr><td style="font-weight:bold;vertical-align:top;">Content-Type</td><td style="vertical-align:top;">:</td><td><div>application/json</div></td></tr><tr><td style="font-weight:bold;vertical-align:top;">X-Powered-By</td><td style="vertical-align:top;">:</td><td><div>web2py</div></td></tr></table></div></td></tr><tr><td style="font-weight:bold;vertical-align:top;">logo</td><td style="vertical-align:top;">:</td><td><div><a class="navbar-brand" href="http://www.web2py.com/" id="web2py-logo"><b>web<span>2</span>py</b>&trade;&nbsp;</a></div></td></tr><tr><td style="font-weight:bold;vertical-align:top;">menu</td><td style="vertical-align:top;">:</td><td><div><table><tr><td><div><table><tr><td><div>Home</div></td></tr><tr><td><div>False</div></td></tr><tr><td><div>/GRS/default/index</div></td></tr><tr><td><div><table></table></div></td></tr></table></div></td></tr><tr><td><div><table><tr><td><div>My Sites</div></td></tr><tr><td><div>False</div></td></tr><tr><td><div>/admin/default/site</div></td></tr></table></div></td></tr><tr><td><div><table><tr><td><div>This App</div></td></tr><tr><td><div>False</div></td></tr><tr><td><div>#</div></td></tr><tr><td><div><table><tr><td><div><table><tr><td><div>Design</div></td></tr><tr><td><div>False</div></td></tr><tr><td><div>/admin/default/design/GRS</div></td></tr></table></div></td></tr><tr><td><div><li class="divider"></li></div></td></tr><tr><td><div><table><tr><td><div>Controller</div></td></tr><tr><td><div>False</div></td></tr><tr><td><div>/admin/default/edit/GRS/controllers/complaint.py</div></td></tr></table></div></td></tr><tr><td><div><table><tr><td><div>View</div></td></tr><tr><td><div>False</div></td></tr><tr><td><div>/admin/default/edit/GRS/views/complaint/complaints.html</div></td></tr></table></div></td></tr><tr><td><div><table><tr><td><div>DB Model</div></td></tr><tr><td><div>False</div></td></tr><tr><td><div>/admin/default/edit/GRS/models/db.py</div></td></tr></table></div></td></tr><tr><td><div><table><tr><td><div>Menu Model</div></td></tr><tr><td><div>False</div></td></tr><tr><td><div>/admin/default/edit/GRS/models/menu.py</div></td></tr></table></div></td></tr><tr><td><div><table><tr><td><div>Config.ini</div></td></tr><tr><td><div>False</div></td></tr><tr><td><div>/admin/default/edit/GRS/private/appconfig.ini</div></td></tr></table></div></td></tr><tr><td><div><table><tr><td><div>Layout</div></td></tr><tr><td><div>False</div></td></tr><tr><td><div>/admin/default/edit/GRS/views/layout.html</div></td></tr></table></div></td></tr><tr><td><div><table><tr><td><div>Stylesheet</div></td></tr><tr><td><div>False</div></td></tr><tr><td><div>/admin/default/edit/GRS/static/css/web2py-bootstrap3.css</div></td></tr></table></div></td></tr><tr><td><div><table><tr><td><div>Database</div></td></tr><tr><td><div>False</div></td></tr><tr><td><div>/GRS/appadmin/index</div></td></tr></table></div></td></tr><tr><td><div><table><tr><td><div>Errors</div></td></tr><tr><td><div>False</div></td></tr><tr><td><div>/admin/default/errors/GRS</div></td></tr></table></div></td></tr><tr><td><div><table><tr><td><div>About</div></td></tr><tr><td><div>False</div></td></tr><tr><td><div>/admin/default/about/GRS</div></td></tr></table></div></td></tr></table></div></td></tr></table></div></td></tr><tr><td><div><table><tr><td><div>web2py.com</div></td></tr><tr><td><div>False</div></td></tr><tr><td><div>#</div></td></tr><tr><td><div><table><tr><td><div><table><tr><td><div>Download</div></td></tr><tr><td><div>False</div></td></tr><tr><td><div>http://www.web2py.com/examples/default/download</div></td></tr></table></div></td></tr><tr><td><div><table><tr><td><div>Support</div></td></tr><tr><td><div>False</div></td></tr><tr><td><div>http://www.web2py.com/examples/default/support</div></td></tr></table></div></td></tr><tr><td><div><table><tr><td><div>Demo</div></td></tr><tr><td><div>False</div></td></tr><tr><td><div>http://web2py.com/demo_admin</div></td></tr></table></div></td></tr><tr><td><div><table><tr><td><div>Quick Examples</div></td></tr><tr><td><div>False</div></td></tr><tr><td><div>http://web2py.com/examples/default/examples</div></td></tr></table></div></td></tr><tr><td><div><table><tr><td><div>FAQ</div></td></tr><tr><td><div>False</div></td></tr><tr><td><div>http://web2py.com/AlterEgo</div></td></tr></table></div></td></tr><tr><td><div><table><tr><td><div>Videos</div></td></tr><tr><td><div>False</div></td></tr><tr><td><div>http://www.web2py.com/examples/default/videos/</div></td></tr></table></div></td></tr><tr><td><div><table><tr><td><div>Free Applications</div></td></tr><tr><td><div>False</div></td></tr><tr><td><div>http://web2py.com/appliances</div></td></tr></table></div></td></tr><tr><td><div><table><tr><td><div>Plugins</div></td></tr><tr><td><div>False</div></td></tr><tr><td><div>http://web2py.com/plugins</div></td></tr></table></div></td></tr><tr><td><div><table><tr><td><div>Recipes</div></td></tr><tr><td><div>False</div></td></tr><tr><td><div>http://web2pyslices.com/</div></td></tr></table></div></td></tr></table></div></td></tr></table></div></td></tr><tr><td><div><table><tr><td><div>Documentation</div></td></tr><tr><td><div>False</div></td></tr><tr><td><div>#</div></td></tr><tr><td><div><table><tr><td><div><table><tr><td><div>Online book</div></td></tr><tr><td><div>False</div></td></tr><tr><td><div>http://www.web2py.com/book</div></td></tr></table></div></td></tr><tr><td><div><li class="divider"></li></div></td></tr><tr><td><div><table><tr><td><div>Preface</div></td></tr><tr><td><div>False</div></td></tr><tr><td><div>http://www.web2py.com/book/default/chapter/00</div></td></tr></table></div></td></tr><tr><td><div><table><tr><td><div>Introduction</div></td></tr><tr><td><div>False</div></td></tr><tr><td><div>http://www.web2py.com/book/default/chapter/01</div></td></tr></table></div></td></tr><tr><td><div><table><tr><td><div>Python</div></td></tr><tr><td><div>False</div></td></tr><tr><td><div>http://www.web2py.com/book/default/chapter/02</div></td></tr></table></div></td></tr><tr><td><div><table><tr><td><div>Overview</div></td></tr><tr><td><div>False</div></td></tr><tr><td><div>http://www.web2py.com/book/default/chapter/03</div></td></tr></table></div></td></tr><tr><td><div><table><tr><td><div>The Core</div></td></tr><tr><td><div>False</div></td></tr><tr><td><div>http://www.web2py.com/book/default/chapter/04</div></td></tr></table></div></td></tr><tr><td><div><table><tr><td><div>The Views</div></td></tr><tr><td><div>False</div></td></tr><tr><td><div>http://www.web2py.com/book/default/chapter/05</div></td></tr></table></div></td></tr><tr><td><div><table><tr><td><div>Database</div></td></tr><tr><td><div>False</div></td></tr><tr><td><div>http://www.web2py.com/book/default/chapter/06</div></td></tr></table></div></td></tr><tr><td><div><table><tr><td><div>Forms and Validators</div></td></tr><tr><td><div>False</div></td></tr><tr><td><div>http://www.web2py.com/book/default/chapter/07</div></td></tr></table></div></td></tr><tr><td><div><table><tr><td><div>Email and SMS</div></td></tr><tr><td><div>False</div></td></tr><tr><td><div>http://www.web2py.com/book/default/chapter/08</div></td></tr></table></div></td></tr><tr><td><div><table><tr><td><div>Access Control</div></td></tr><tr><td><div>False</div></td></tr><tr><td><div>http://www.web2py.com/book/default/chapter/09</div></td></tr></table></div></td></tr><tr><td><div><table><tr><td><div>Services</div></td></tr><tr><td><div>False</div></td></tr><tr><td><div>http://www.web2py.com/book/default/chapter/10</div></td></tr></table></div></td></tr><tr><td><div><table><tr><td><div>Ajax Recipes</div></td></tr><tr><td><div>False</div></td></tr><tr><td><div>http://www.web2py.com/book/default/chapter/11</div></td></tr></table></div></td></tr><tr><td><div><table><tr><td><div>Components and Plugins</div></td></tr><tr><td><div>False</div></td></tr><tr><td><div>http://www.web2py.com/book/default/chapter/12</div></td></tr></table></div></td></tr><tr><td><div><table><tr><td><div>Deployment Recipes</div></td></tr><tr><td><div>False</div></td></tr><tr><td><div>http://www.web2py.com/book/default/chapter/13</div></td></tr></table></div></td></tr><tr><td><div><table><tr><td><div>Other Recipes</div></td></tr><tr><td><div>False</div></td></tr><tr><td><div>http://www.web2py.com/book/default/chapter/14</div></td></tr></table></div></td></tr><tr><td><div><table><tr><td><div>Helping web2py</div></td></tr><tr><td><div>False</div></td></tr><tr><td><div>http://www.web2py.com/book/default/chapter/15</div></td></tr></table></div></td></tr><tr><td><div><table><tr><td><div>Buy web2py\'s book</div></td></tr><tr><td><div>False</div></td></tr><tr><td><div>http://stores.lulu.com/web2py</div></td></tr></table></div></td></tr></table></div></td></tr></table></div></td></tr><tr><td><div><table><tr><td><div>Community</div></td></tr><tr><td><div>False</div></td></tr><tr><td><div>None</div></td></tr><tr><td><div><table><tr><td><div><table><tr><td><div>Groups</div></td></tr><tr><td><div>False</div></td></tr><tr><td><div>http://www.web2py.com/examples/default/usergroups</div></td></tr></table></div></td></tr><tr><td><div><table><tr><td><div>Twitter</div></td></tr><tr><td><div>False</div></td></tr><tr><td><div>http://twitter.com/web2py</div></td></tr></table></div></td></tr><tr><td><div><table><tr><td><div>Live Chat</div></td></tr><tr><td><div>False</div></td></tr><tr><td><div>http://webchat.freenode.net/?channels=web2py</div></td></tr></table></div></td></tr></table></div></td></tr></table></div></td></tr></table></div></td></tr><tr><td style="font-weight:bold;vertical-align:top;">meta</td><td style="vertical-align:top;">:</td><td><div><table><tr><td style="font-weight:bold;vertical-align:top;">author</td><td style="vertical-align:top;">:</td><td><div>Your Name &lt;you@example.com&gt;</div></td></tr><tr><td style="font-weight:bold;vertical-align:top;">description</td><td style="vertical-align:top;">:</td><td><div>a cool new app</div></td></tr><tr><td style="font-weight:bold;vertical-align:top;">generator</td><td style="vertical-align:top;">:</td><td><div>Web2py Web Framework</div></td></tr><tr><td style="font-weight:bold;vertical-align:top;">keywords</td><td style="vertical-align:top;">:</td><td><div><table><tr><td><div>web2py</div></td></tr><tr><td><div>python</div></td></tr><tr><td><div>framework</div></td></tr></table></div></td></tr></table></div></td></tr><tr><td style="font-weight:bold;vertical-align:top;">models_to_run</td><td style="vertical-align:top;">:</td><td><div><table><tr><td><div>^\\w+\\.py$</div></td></tr><tr><td><div>^complaint/\\w+\\.py$</div></td></tr><tr><td><div>^complaint/complaints/\\w+\\.py$</div></td></tr></table></div></td></tr><tr><td style="font-weight:bold;vertical-align:top;">postprocessing</td><td style="vertical-align:top;">:</td><td><div><table></table></div></td></tr><tr><td style="font-weight:bold;vertical-align:top;">session_client</td><td style="vertical-align:top;">:</td><td><div>127.0.0.1</div></td></tr><tr><td style="font-weight:bold;vertical-align:top;">session_cookie_compression_level</td><td style="vertical-align:top;">:</td><td><div>None</div></td></tr><tr><td style="font-weight:bold;vertical-align:top;">session_cookie_expires</td><td style="vertical-align:top;">:</td><td><div>None</div></td></tr><tr><td style="font-weight:bold;vertical-align:top;">session_data_name</td><td style="vertical-align:top;">:</td><td><div>session_data_grs</div></td></tr><tr><td style="font-weight:bold;vertical-align:top;">session_file</td><td style="vertical-align:top;">:</td><td><div>None</div></td></tr><tr><td style="font-weight:bold;vertical-align:top;">session_filename</td><td style="vertical-align:top;">:</td><td><div>/home/user/Local Disk E/COP290/assignment2/GRS_Grievances_Resolution_System/web2py/applications/GRS/sessions/127.0.0.1-d49da2a1-2392-42e2-9b69-1732b23f15b0</div></td></tr><tr><td style="font-weight:bold;vertical-align:top;">session_hash</td><td style="vertical-align:top;">:</td><td><div>c0762cbf4baf7f9af97c051e7fcb8083</div></td></tr><tr><td style="font-weight:bold;vertical-align:top;">session_id</td><td style="vertical-align:top;">:</td><td><div>127.0.0.1-d49da2a1-2392-42e2-9b69-1732b23f15b0</div></td></tr><tr><td style="font-weight:bold;vertical-align:top;">session_id_name</td><td style="vertical-align:top;">:</td><td><div>session_id_grs</div></td></tr><tr><td style="font-weight:bold;vertical-align:top;">session_masterapp</td><td style="vertical-align:top;">:</td><td><div>GRS</div></td></tr><tr><td style="font-weight:bold;vertical-align:top;">session_new</td><td style="vertical-align:top;">:</td><td><div>True</div></td></tr><tr><td style="font-weight:bold;vertical-align:top;">session_storage_type</td><td style="vertical-align:top;">:</td><td><div>file</div></td></tr><tr><td style="font-weight:bold;vertical-align:top;">status</td><td style="vertical-align:top;">:</td><td><div>200</div></td></tr><tr><td style="font-weight:bold;vertical-align:top;">subtitle</td><td style="vertical-align:top;">:</td><td><div></div></td></tr><tr><td style="font-weight:bold;vertical-align:top;">title</td><td style="vertical-align:top;">:</td><td><div>Grs</div></td></tr><tr><td style="font-weight:bold;vertical-align:top;">view</td><td style="vertical-align:top;">:</td><td><div>generic.json</div></td></tr></table></div>'
tRp179
sS'locals'
p180
(dp181
S'index'
p182
S'0'
sS'all_made'
p183
S'<Rows (1)>'
p184
sS'user_id'
p185
S"'4'"
p186
sS'all_members'
p187
S'<Rows (2)>'
p188
sS'complaint_section'
p189
S"'solve'"
p190
sS'user1'
p191
S'8L'
p192
sS'ret'
p193
S'[]'
p194
sS'is_in_group'
p195
S'<function is_in_group>'
p196
sS'from_user'
p197
S'None'
p198
sS'to_group'
p199
S'110L'
p200
sssS'traceback'
p201
S'Traceback (most recent call last):\n  File "/home/user/Local Disk E/COP290/assignment2/GRS_Grievances_Resolution_System/web2py/gluon/restricted.py", line 227, in restricted\n    exec ccode in environment\n  File "/home/user/Local Disk E/COP290/assignment2/GRS_Grievances_Resolution_System/web2py/applications/GRS/controllers/complaint.py", line 279, in <module>\n  File "/home/user/Local Disk E/COP290/assignment2/GRS_Grievances_Resolution_System/web2py/gluon/globals.py", line 417, in <lambda>\n    self._caller = lambda f: f()\n  File "/home/user/Local Disk E/COP290/assignment2/GRS_Grievances_Resolution_System/web2py/gluon/globals.py", line 380, in f\n    res = rest_action(*request.args, **request.vars)\n  File "/home/user/Local Disk E/COP290/assignment2/GRS_Grievances_Resolution_System/web2py/applications/GRS/controllers/complaint.py", line 73, in GET\n    user_id1 = db.users(id=user_id).id\nAttributeError: \'NoneType\' object has no attribute \'id\'\n'
p202
s.