(dp1
S'output'
p2
S"<class 'sqlite3.OperationalError'> database is locked"
p3
sS'layer'
p4
S'/home/user/Local Disk E/COP290/assignment2/GRS_Grievances_Resolution_System/web2py/applications/GRS/controllers/complaint.py'
p5
sS'code'
p6
S"@request.restful()\ndef details():\n\tresponse.view = 'generic.json'\n\tdef GET(complaint_id):\n\t\treturn dict(data = db.complaints(id=complaint_id))\n    \treturn locals()\n\n@request.restful()\ndef levels():\n\tresponse.view = 'generic.json'\n\tdef GET():\n\t\treturn dict(data = db(db.complaint_levels.id>0).select())\n    \treturn locals()\n\n@request.restful()\ndef domains():\n\tresponse.view = 'generic.json'\n\tdef GET(level_id):\n\t\treturn dict(data = db(db.complaint_domain.complaint_level_id==level_id).select())\n    \treturn locals()\n\n@request.restful()\ndef bookmark():\n\tresponse.view = 'generic.json'\n\tdef GET(complaint_id):\n\t\tdata = db(db.bookmarks.complaint_id==complaint_id).select()\n\t\tif len(data)>0:\n\t\t\treturn dict(bookmarked = True)\n\t\telse:\n\t\t\treturn dict(bookmarked = False)\n    \treturn locals()\n\n@request.restful()\ndef status():\n\tresponse.view = 'generic.json'\n\tdef GET(complaint_id):\n\t\treturn dict(data = db(db.complaint_status.complaint_id==complaint_id).select())\n    \treturn locals()\n\tdef POST(*tmp_args,**status_input):\n\t\treturn db[db.complaint_status].validate_and_insert(**status_input)\n\treturn locals()\n\n@request.restful()\ndef complaints():\n\tresponse.view = 'generic.json'\n\tdef GET(complaint_section):\n\t\tif(complaint_section=='bookmarked'):\n\t\t\treturn dict(data = db(db.bookmarks.complaint_id>0).select())\n\t\telif(complaint_section=='concern'):\n\t\t\treturn dict(data = db(db.complaints_concerning_user.complaint_id>0).select())\n\t\telif(complaint_section=='resolve'):\n\t\t\treturn dict(data = db(db.complaints_with_resolving_rights_to_user.complaint_id>0).select())\n\t\telif(complaint_section=='solve'):\n\t\t\treturn dict(data = db(db.complaints_made_to_user.complaint_id>0).select())\n    \treturn locals()\n\n@request.restful()\ndef create():\n\tresponse.view = 'generic.json'\n\tdef POST(*tmp_args,**complaint_input):\n\t\tcmplt = db[db.complaints].validate_and_insert(**complaint_input)\n\t\tcomplaint_id = cmplt.id\n\t\tuser_id = request.vars.user_id\n\t\tconcern = db.complaints_concerning_user.insert(complaint_id=complaint_id,user_id=user_id)\n\t\tpresent_domain_name = db.complaint_domain.complaint_domain_name(id=request.vars.complaint_domain_id)\n\t\treturn dict(ret = present_domain_name)\n\t\t#if\n\t\t#\tcmplt = db[db.complaints].validate_and_insert(**complaint_input)\n\tdef GET(*tmp_args,**complaint_input):\n\t\tcmplt = db[db.complaints].validate_and_insert(**complaint_input)\n\t\tcomplaint_id = cmplt.id\n\t\tuser_id = db.users(id=request.vars.posted_by)\n\t\tpresent_domain_name = db.complaint_domain(id=request.vars.complaint_domain_id).complaint_domain_name\n\t\tpresent_level_name = db.complaint_levels(id=db.complaint_domain(id=request.vars.complaint_domain_id).complaint_level_id).complaint_level_name\n\t\tif present_level_name=='Individual':\n\t\t\tcmplt_rslv = db.complaints_with_resolving_rights_to_user.insert(complaint_id=complaint_id,id_type=0,user_id=user_id)\n\t\t\tconcern = db.complaints_concerning_user.insert(complaint_id=complaint_id,id_type=0,user_id=user_id)\n\t\t\tif present_domain_name=='Electricity':\n\t\t\t\tcmplt = db.complaints_made_to_user.insert(complaint_id=complaint_id,id_type=1,group_id=db.user_group_names(group_name='Electricity Department').id)\n\t\t\telif present_domain_name=='Plumbing':\n\t\t\t\tcmplt = db.complaints_made_to_user.insert(complaint_id=complaint_id,id_type=1,group_id=db.user_group_names(group_name='Plumbing Department').id)\n\t\t\telif present_domain_name=='Carpentry':\n\t\t\t\tcmplt = db.complaints_made_to_user.insert(complaint_id=complaint_id,id_type=1,group_id=db.user_group_names(group_name='Carpentry Department').id)\n\t\t\telif present_domain_name=='UG Section':\n\t\t\t\tcmplt = db.complaints_made_to_user.insert(complaint_id=complaint_id,id_type=1,group_id=db.user_group_names(group_name='UG Section').id)\n\t\t\telif present_domain_name=='PG Section':\n\t\t\t\tcmplt = db.complaints_made_to_user.insert(complaint_id=complaint_id,id_type=1,group_id=db.user_group_names(group_name='PG Section').id)\n\t\t\telif present_domain_name=='Accounts Section':\n\t\t\t\tcmplt = db.complaints_made_to_user.insert(complaint_id=complaint_id,id_type=1,group_id=db.user_group_names(group_name='Accounts Section').id)\n\t\t\telif present_domain_name=='Students Counselling Service':\n\t\t\t\tcmplt = db.complaints_made_to_user.insert(complaint_id=complaint_id,id_type=1,group_id=db.user_group_names(group_name='Students Counselling Service').id)\n\t\t\telif present_domain_name=='Ragging':\n\t\t\t\tcmplt = db.complaints_made_to_user.insert(complaint_id=complaint_id,id_type=1,group_id=db.user_group_names(group_name='Students Counselling Service').id)\n\t\t\telif present_domain_name=='Hostel Administration':\n\t\t\t\thstl = db.users(id=user_id).hostel_id;\n\t\t\t\thostel_admin_grp = db.hostels(id=hstl).hostel_admin_group_id;\n\t\t\t\tcmplt = db.complaints_made_to_user.insert(complaint_id=complaint_id,id_type=1,group_id=hostel_admin_grp)\n\t\t\telif present_domain_name=='Security':\n\t\t\t\tcmplt = db.complaints_made_to_user.insert(complaint_id=complaint_id,id_type=1,group_id=db.user_group_names(group_name='Security Department').id)\n\t\t\t\n\n\t\t\telif present_domain_name=='Miscellaneous':\n\t\t\t\tcmplt = db[db.complaints].validate_and_insert(**complaint_input)\n\n\n\t\telif present_level_name=='Hostel':\n\n\t\t\thstl = db.users(id=user_id).hostel_id;\n\t\t\thostel_admin_grp = db.hostels(id=hstl).hostel_admin_group_id;\n\t\t\tmess_secretry = db.hostel_management(hostel_id=hstl).mess_secretary_user_id\n\t\t\tmaintenance_secretry = db.hostel_management(hostel_id=hstl).mess_secretary_user_id\n\t\t\tsports_secretry = db.hostel_management(hostel_id=hstl).mess_secretary_user_id\n\t\t\tconcern = db.complaints_concerning_user.insert(complaint_id=complaint_id,id_type=1,group_id=hostel_residents_group_id)\n\t\t\tif present_domain_name=='Infrastructure':\n\t\t\t\tcmplt = db.complaints_made_to_user.insert(complaint_id=complaint_id,id_type=1,group_id=hostel_admin_grp)\n\t\t\t\tcmplt_rslv = db.complaints_with_resolving_rights_to_user.insert(complaint_id=complaint_id,id_type=1,group_id=hostel_admin_grp)\n\t\t\telif present_domain_name=='Mess':\n\t\t\t\tcmplt = db.complaints_made_to_user.insert(complaint_id=complaint_id,id_type=0,user_id=mess_secretry)\n\t\t\t\tcmplt_rslv = db.complaints_with_resolving_rights_to_user.insert(complaint_id=complaint_id,id_type=0,user_id=mess_secretry)\n\t\t\telif present_domain_name=='Administration':\n\t\t\t\tcmplt = db.complaints_made_to_user.insert(complaint_id=complaint_id,id_type=1,group_id=hostel_admin_grp)\n\t\t\t\tcmplt_rslv = db.complaints_with_resolving_rights_to_user.insert(complaint_id=complaint_id,id_type=1,group_id=hostel_admin_grp)\n\t\t\telif present_domain_name=='Security':\n\t\t\t\tcmplt = db.complaints_made_to_user.insert(complaint_id=complaint_id,id_type=1,group_id=hostel_admin_grp)\n\t\t\t\tcmplt_rslv = db.complaints_with_resolving_rights_to_user.insert(complaint_id=complaint_id,id_type=1,group_id=hostel_admin_grp)\n\t\t\telif present_domain_name=='Sports':\n\t\t\t\tcmplt = db.complaints_made_to_user.insert(complaint_id=complaint_id,id_type=0,user_id=sports_secretry)\n\t\t\t\tcmplt_rslv = db.complaints_with_resolving_rights_to_user.insert(complaint_id=complaint_id,id_type=0,user_id=sports_secretry)\n\t\t\telif present_domain_name=='Maintenance':\n\t\t\t\tcmplt = db.complaints_made_to_user.insert(complaint_id=complaint_id,id_type=0,user_id=maintenance_secretry)\n\t\t\t\tcmplt_rslv = db.complaints_with_resolving_rights_to_user.insert(complaint_id=complaint_id,id_type=0,user_id=maintenance_secretary)\n\n\t\t\telif present_domain_name=='Miscellaneous':\n\t\t\t\tcmplt = db.complaints_made_to_user.insert(complaint_id=complaint_id,id_type=1,group_id=hostel_admin_grp)\n\t\t\t\tcmplt_rslv = db.complaints_with_resolving_rights_to_user.insert(complaint_id=complaint_id,id_type=1,group_id=hostel_admin_grp)\n\n\t\telif present_level_name=='Institute':\n\t\t\tconcern = db.complaints_concerning_user.insert(complaint_id=complaint_id,id_type=1,group_id=db.user_group_names(group_name='Institute').id)\n\t\t\tif present_domain_name=='Infrastructure':\n\t\t\t\tcmplt = db.complaints_made_to_user.insert(complaint_id=complaint_id,id_type=1,group_id=db.user_group_names(group_name='Institute Administration').id)\n\t\t\t\tcmplt_rslv = db.complaints_with_resolving_rights_to_user.insert(complaint_id=complaint_id,id_type=1,group_id=db.user_group_names(group_name='Institute Administration').id)\n\t\t\telif present_domain_name=='Administration':\n\t\t\t\tcmplt = db.complaints_made_to_user.insert(complaint_id=complaint_id,id_type=1,group_id=db.user_group_names(group_name='Institute Administration').id)\n\t\t\t\tcmplt_rslv = db.complaints_with_resolving_rights_to_user.insert(complaint_id=complaint_id,id_type=1,group_id=db.user_group_names(group_name='Institute Administration').id)\n\t\t\telif present_domain_name=='Canteen and Food Outlets':\n\t\t\t\tcmplt = db.complaints_made_to_user.insert(complaint_id=complaint_id,id_type=1,group_id=db.user_group_names(group_name='Institute Administration').id)\n\t\t\t\tcmplt_rslv = db.complaints_with_resolving_rights_to_user.insert(complaint_id=complaint_id,id_type=1,group_id=db.user_group_names(group_name='Institute Administration').id)\n\t\t\t\tcmplt = db.complaints_made_to_user.insert(complaint_id=complaint_id,id_type=1,group_id=db.user_group_names(group_name='BSW').id)\n\t\t\t\tcmplt_rslv = db.complaints_with_resolving_rights_to_user.insert(complaint_id=complaint_id,id_type=1,group_id=db.user_group_names(group_name='BSW').id)\n\t\t\telif present_domain_name=='Security':\n\t\t\t\tcmplt = db.complaints_made_to_user.insert(complaint_id=complaint_id,id_type=1,group_id=db.user_group_names(group_name='Institute Administration').id)\n\t\t\t\tcmplt_rslv = db.complaints_with_resolving_rights_to_user.insert(complaint_id=complaint_id,id_type=1,group_id=db.user_group_names(group_name='Institute Administration').id)\n\t\t\t\tcmplt = db.complaints_made_to_user.insert(complaint_id=complaint_id,id_type=1,group_id=db.user_group_names(group_name='BSW').id)\n\t\t\t\tcmplt_rslv = db.complaints_with_resolving_rights_to_user.insert(complaint_id=complaint_id,id_type=1,group_id=db.user_group_names(group_name='BSW').id)\n\t\t\telif present_domain_name=='Sports':\n\t\t\t\tcmplt = db.complaints_made_to_user.insert(complaint_id=complaint_id,id_type=1,group_id=db.user_group_names(group_name='BSA').id)\n\t\t\t\tcmplt_rslv = db.complaints_with_resolving_rights_to_user.insert(complaint_id=complaint_id,id_type=1,group_id=db.user_group_names(group_name='BSA').id)\n\t\t\telif present_domain_name=='Culture':\n\t\t\t\tcmplt = db.complaints_made_to_user.insert(complaint_id=complaint_id,id_type=1,group_id=db.user_group_names(group_name='BRCA').id)\n\t\t\t\tcmplt_rslv = db.complaints_with_resolving_rights_to_user.insert(complaint_id=complaint_id,id_type=1,group_id=db.user_group_names(group_name='BRCA').id)\n\t\t\telif present_domain_name=='Academics':\n\t\t\t\tcmplt = db.complaints_made_to_user.insert(complaint_id=complaint_id,id_type=1,group_id=db.user_group_names(group_name='Institute Administration').id)\n\t\t\t\tcmplt_rslv = db.complaints_with_resolving_rights_to_user.insert(complaint_id=complaint_id,id_type=1,group_id=db.user_group_names(group_name='Institute Administration').id)\n\t\t\telif present_domain_name=='Computer Services Centre':\n\t\t\t\tcmplt = db.complaints_made_to_user.insert(complaint_id=complaint_id,id_type=1,group_id=db.user_group_names(group_name='Computer Services Centre').id)\n\t\t\t\tcmplt_rslv = db.complaints_with_resolving_rights_to_user.insert(complaint_id=complaint_id,id_type=1,group_id=db.user_group_names(group_name='Computer Services Centre').id)\n\t\t\telif present_domain_name=='Maintenance':\n\t\t\t\tcmplt = db.complaints_made_to_user.insert(complaint_id=complaint_id,id_type=1,group_id=db.user_group_names(group_name='Institute Administration').id)\n\t\t\t\tcmplt_rslv = db.complaints_with_resolving_rights_to_user.insert(complaint_id=complaint_id,id_type=1,group_id=db.user_group_names(group_name='Institute Administration').id)\n\n\n\t\t\telif present_domain_name=='Miscellaneous':\n\t\t\t\tcmplt = db[db.complaints].validate_and_insert(**complaint_input)\n\n\n\t\telse:\treturn dict(status = 'TO do===Miscellaneous')\n\treturn locals()\n\n@request.restful()\ndef vote():\n\tresponse.view = 'generic.json'\n\tdef POST(*tmp_args,**vote_input):\n\t\treturn db[db.votes].validate_and_insert(**vote_input)\n\tdef GET(*tmp_args,**vote_input):\n\t\treturn db[db.votes].validate_and_insert(**vote_input)\n\treturn locals()\n\n@request.restful()\ndef follow():\n\tresponse.view = 'generic.json'\n\tdef POST(*tmp_args,**follow_input):\n\t\treturn db[db.bookmarks].validate_and_insert(**follow_input)\n\tdef GET(*tmp_args,**follow_input):\n\t\treturn db[db.bookmarks].validate_and_insert(**follow_input)\n\treturn locals()\n\n@request.restful()\ndef read():\n\tresponse.view = 'generic.json'\n\tdef POST(*tmp_args,**follow_input):\n\t\treturn db[db.complaint_read].validate_and_insert(**follow_input)\n\tdef GET(*tmp_args,**follow_input):\n\t\treturn db[db.complaint_read].validate_and_insert(**follow_input)\n\treturn locals()\n\n@request.restful()\ndef is_read():\n\tresponse.view = 'generic.json'\n\tdef GET(complaint_id):\n\t\tdata = db(db.complaint_read.complaint_id==complaint_id).select()\n\t\tif len(data)>0:\n\t\t\treturn dict(read = True)\n\t\telse:\n\t\t\treturn dict(read = False)\n    \treturn locals()\n\n@request.restful()\ndef redirect():\n\tresponse.view = 'generic.json'\n\tdef POST(*tmp_args,**follow_input):\n\t\tuserid_from = request.vars.redirect_from\n\t\tuserid_to = request.vars.redirect_to\n\t\tcomplaint_id = request.vars.complaint_id\n\t\tupdated = db.executesql('UPDATE complaints SET redirected_to_user='+userid_to+', redirect_from_user='+userid_from+' WHERE id='+complaint_id+';')\n\t\treturn dict(success=False if not updated else True)\n\tdef GET(*tmp_args,**follow_input):\n\t\tuserid_from = request.vars.redirect_from\n\t\tuserid_to = request.vars.redirect_to\n\t\tcomplaint_id = request.vars.complaint_id\n\t\tdone = db.executesql('UPDATE complaints SET redirected_to_user_id='+userid_to+', redirected_by_user_id='+userid_from+' WHERE id='+complaint_id+';')\n\t\treturn dict(success=True)\n\treturn locals()\n\n\n@request.restful()\ndef comment():\n\tresponse.view = 'generic.json'\n\tdef POST(*tmp_args,**follow_input):\n\t\treturn db[db.comments].validate_and_insert(**follow_input)\n\tdef GET(*tmp_args,**follow_input):\n\t\treturn db[db.comments].validate_and_insert(**follow_input)\n\treturn locals()\n\n\n\nresponse._vars=response._caller(create)\n"
p7
sS'snapshot'
p8
(dp9
S'exception'
p10
(dp11
S'__module__'
p12
S"'sqlite3'"
p13
sS'__getslice__'
p14
S"<method-wrapper '__getslice__' of OperationalError object>"
p15
sS'__str__'
p16
S"<method-wrapper '__str__' of OperationalError object>"
p17
sS'__reduce__'
p18
S'<built-in method __reduce__ of OperationalError object>'
p19
sS'__dict__'
p20
S'{}'
p21
sS'__sizeof__'
p22
S'<built-in method __sizeof__ of OperationalError object>'
p23
sS'__weakref__'
p24
S'None'
p25
sS'__init__'
p26
S"<method-wrapper '__init__' of OperationalError object>"
p27
sS'__setattr__'
p28
S"<method-wrapper '__setattr__' of OperationalError object>"
p29
sS'__reduce_ex__'
p30
S'<built-in method __reduce_ex__ of OperationalError object>'
p31
sS'__new__'
p32
S'<built-in method __new__ of type object>'
p33
sS'__format__'
p34
S'<built-in method __format__ of OperationalError object>'
p35
sS'__class__'
p36
S"<class 'sqlite3.OperationalError'>"
p37
sS'__doc__'
p38
S'None'
p39
sS'__getitem__'
p40
S"<method-wrapper '__getitem__' of OperationalError object>"
p41
sS'__setstate__'
p42
S'<built-in method __setstate__ of OperationalError object>'
p43
sS'__getattribute__'
p44
S"<method-wrapper '__getattribute__' of OperationalError object>"
p45
sS'args'
p46
S"('database is locked',)"
p47
sS'__subclasshook__'
p48
S'<built-in method __subclasshook__ of type object>'
p49
sS'__unicode__'
p50
S'<built-in method __unicode__ of OperationalError object>'
p51
sS'__delattr__'
p52
S"<method-wrapper '__delattr__' of OperationalError object>"
p53
sS'__repr__'
p54
S"<method-wrapper '__repr__' of OperationalError object>"
p55
sS'__hash__'
p56
S"<method-wrapper '__hash__' of OperationalError object>"
p57
ssS'evalue'
p58
S'database is locked'
p59
sS'request'
p60
cgluon.html
XML_unpickle
p61
(S'sHy\x00\x00<div><table><tr><td style="font-weight:bold;vertical-align:top;">ajax</td><td style="vertical-align:top;">:</td><td><div>False</div></td></tr><tr><td style="font-weight:bold;vertical-align:top;">application</td><td style="vertical-align:top;">:</td><td><div>GRS</div></td></tr><tr><td style="font-weight:bold;vertical-align:top;">args</td><td style="vertical-align:top;">:</td><td><div><table></table></div></td></tr><tr><td style="font-weight:bold;vertical-align:top;">cid</td><td style="vertical-align:top;">:</td><td><div>None</div></td></tr><tr><td style="font-weight:bold;vertical-align:top;">client</td><td style="vertical-align:top;">:</td><td><div>127.0.0.1</div></td></tr><tr><td style="font-weight:bold;vertical-align:top;">controller</td><td style="vertical-align:top;">:</td><td><div>complaint</div></td></tr><tr><td style="font-weight:bold;vertical-align:top;">cookies</td><td style="vertical-align:top;">:</td><td><div><table><tr><td style="font-weight:bold;vertical-align:top;">gsScrollPos</td><td style="vertical-align:top;">:</td><td><div><table><tr><td style="font-weight:bold;vertical-align:top;">comment</td><td style="vertical-align:top;">:</td><td><div></div></td></tr><tr><td style="font-weight:bold;vertical-align:top;">domain</td><td style="vertical-align:top;">:</td><td><div></div></td></tr><tr><td style="font-weight:bold;vertical-align:top;">expires</td><td style="vertical-align:top;">:</td><td><div></div></td></tr><tr><td style="font-weight:bold;vertical-align:top;">httponly</td><td style="vertical-align:top;">:</td><td><div></div></td></tr><tr><td style="font-weight:bold;vertical-align:top;">max-age</td><td style="vertical-align:top;">:</td><td><div></div></td></tr><tr><td style="font-weight:bold;vertical-align:top;">path</td><td style="vertical-align:top;">:</td><td><div></div></td></tr><tr><td style="font-weight:bold;vertical-align:top;">secure</td><td style="vertical-align:top;">:</td><td><div></div></td></tr><tr><td style="font-weight:bold;vertical-align:top;">version</td><td style="vertical-align:top;">:</td><td><div></div></td></tr></table></div></td></tr><tr><td style="font-weight:bold;vertical-align:top;">session_id_admin</td><td style="vertical-align:top;">:</td><td><div>127.0.0.1-9942ebac-63c4-4689-80e7-24e695466b80<table><tr><td style="font-weight:bold;vertical-align:top;">comment</td><td style="vertical-align:top;">:</td><td><div></div></td></tr><tr><td style="font-weight:bold;vertical-align:top;">domain</td><td style="vertical-align:top;">:</td><td><div></div></td></tr><tr><td style="font-weight:bold;vertical-align:top;">expires</td><td style="vertical-align:top;">:</td><td><div></div></td></tr><tr><td style="font-weight:bold;vertical-align:top;">httponly</td><td style="vertical-align:top;">:</td><td><div></div></td></tr><tr><td style="font-weight:bold;vertical-align:top;">max-age</td><td style="vertical-align:top;">:</td><td><div></div></td></tr><tr><td style="font-weight:bold;vertical-align:top;">path</td><td style="vertical-align:top;">:</td><td><div></div></td></tr><tr><td style="font-weight:bold;vertical-align:top;">secure</td><td style="vertical-align:top;">:</td><td><div></div></td></tr><tr><td style="font-weight:bold;vertical-align:top;">version</td><td style="vertical-align:top;">:</td><td><div></div></td></tr></table></div></td></tr><tr><td style="font-weight:bold;vertical-align:top;">session_id_grievances</td><td style="vertical-align:top;">:</td><td><div>127.0.0.1-39bee78a-8e5b-4d17-ad2b-fa503b854ff7<table><tr><td style="font-weight:bold;vertical-align:top;">comment</td><td style="vertical-align:top;">:</td><td><div></div></td></tr><tr><td style="font-weight:bold;vertical-align:top;">domain</td><td style="vertical-align:top;">:</td><td><div></div></td></tr><tr><td style="font-weight:bold;vertical-align:top;">expires</td><td style="vertical-align:top;">:</td><td><div></div></td></tr><tr><td style="font-weight:bold;vertical-align:top;">httponly</td><td style="vertical-align:top;">:</td><td><div></div></td></tr><tr><td style="font-weight:bold;vertical-align:top;">max-age</td><td style="vertical-align:top;">:</td><td><div></div></td></tr><tr><td style="font-weight:bold;vertical-align:top;">path</td><td style="vertical-align:top;">:</td><td><div></div></td></tr><tr><td style="font-weight:bold;vertical-align:top;">secure</td><td style="vertical-align:top;">:</td><td><div></div></td></tr><tr><td style="font-weight:bold;vertical-align:top;">version</td><td style="vertical-align:top;">:</td><td><div></div></td></tr></table></div></td></tr><tr><td style="font-weight:bold;vertical-align:top;">session_id_grs</td><td style="vertical-align:top;">:</td><td><div>127.0.0.1-603a76e3-219e-4ba6-a648-2e97648de564<table><tr><td style="font-weight:bold;vertical-align:top;">comment</td><td style="vertical-align:top;">:</td><td><div></div></td></tr><tr><td style="font-weight:bold;vertical-align:top;">domain</td><td style="vertical-align:top;">:</td><td><div></div></td></tr><tr><td style="font-weight:bold;vertical-align:top;">expires</td><td style="vertical-align:top;">:</td><td><div></div></td></tr><tr><td style="font-weight:bold;vertical-align:top;">httponly</td><td style="vertical-align:top;">:</td><td><div></div></td></tr><tr><td style="font-weight:bold;vertical-align:top;">max-age</td><td style="vertical-align:top;">:</td><td><div></div></td></tr><tr><td style="font-weight:bold;vertical-align:top;">path</td><td style="vertical-align:top;">:</td><td><div></div></td></tr><tr><td style="font-weight:bold;vertical-align:top;">secure</td><td style="vertical-align:top;">:</td><td><div></div></td></tr><tr><td style="font-weight:bold;vertical-align:top;">version</td><td style="vertical-align:top;">:</td><td><div></div></td></tr></table></div></td></tr><tr><td style="font-weight:bold;vertical-align:top;">session_id_moodleplus</td><td style="vertical-align:top;">:</td><td><div>127.0.0.1-1da20854-4832-4b2c-a05d-3e22d05c8dea<table><tr><td style="font-weight:bold;vertical-align:top;">comment</td><td style="vertical-align:top;">:</td><td><div></div></td></tr><tr><td style="font-weight:bold;vertical-align:top;">domain</td><td style="vertical-align:top;">:</td><td><div></div></td></tr><tr><td style="font-weight:bold;vertical-align:top;">expires</td><td style="vertical-align:top;">:</td><td><div></div></td></tr><tr><td style="font-weight:bold;vertical-align:top;">httponly</td><td style="vertical-align:top;">:</td><td><div></div></td></tr><tr><td style="font-weight:bold;vertical-align:top;">max-age</td><td style="vertical-align:top;">:</td><td><div></div></td></tr><tr><td style="font-weight:bold;vertical-align:top;">path</td><td style="vertical-align:top;">:</td><td><div></div></td></tr><tr><td style="font-weight:bold;vertical-align:top;">secure</td><td style="vertical-align:top;">:</td><td><div></div></td></tr><tr><td style="font-weight:bold;vertical-align:top;">version</td><td style="vertical-align:top;">:</td><td><div></div></td></tr></table></div></td></tr><tr><td style="font-weight:bold;vertical-align:top;">session_id_sample1</td><td style="vertical-align:top;">:</td><td><div>127.0.0.1-69257c23-3e3c-4433-8daa-b0ad4e8056af<table><tr><td style="font-weight:bold;vertical-align:top;">comment</td><td style="vertical-align:top;">:</td><td><div></div></td></tr><tr><td style="font-weight:bold;vertical-align:top;">domain</td><td style="vertical-align:top;">:</td><td><div></div></td></tr><tr><td style="font-weight:bold;vertical-align:top;">expires</td><td style="vertical-align:top;">:</td><td><div></div></td></tr><tr><td style="font-weight:bold;vertical-align:top;">httponly</td><td style="vertical-align:top;">:</td><td><div></div></td></tr><tr><td style="font-weight:bold;vertical-align:top;">max-age</td><td style="vertical-align:top;">:</td><td><div></div></td></tr><tr><td style="font-weight:bold;vertical-align:top;">path</td><td style="vertical-align:top;">:</td><td><div></div></td></tr><tr><td style="font-weight:bold;vertical-align:top;">secure</td><td style="vertical-align:top;">:</td><td><div></div></td></tr><tr><td style="font-weight:bold;vertical-align:top;">version</td><td style="vertical-align:top;">:</td><td><div></div></td></tr></table></div></td></tr><tr><td style="font-weight:bold;vertical-align:top;">session_id_sample2</td><td style="vertical-align:top;">:</td><td><div>127.0.0.1-9b5af82d-a2f9-4dc5-9bb8-cace0eec1b34<table><tr><td style="font-weight:bold;vertical-align:top;">comment</td><td style="vertical-align:top;">:</td><td><div></div></td></tr><tr><td style="font-weight:bold;vertical-align:top;">domain</td><td style="vertical-align:top;">:</td><td><div></div></td></tr><tr><td style="font-weight:bold;vertical-align:top;">expires</td><td style="vertical-align:top;">:</td><td><div></div></td></tr><tr><td style="font-weight:bold;vertical-align:top;">httponly</td><td style="vertical-align:top;">:</td><td><div></div></td></tr><tr><td style="font-weight:bold;vertical-align:top;">max-age</td><td style="vertical-align:top;">:</td><td><div></div></td></tr><tr><td style="font-weight:bold;vertical-align:top;">path</td><td style="vertical-align:top;">:</td><td><div></div></td></tr><tr><td style="font-weight:bold;vertical-align:top;">secure</td><td style="vertical-align:top;">:</td><td><div></div></td></tr><tr><td style="font-weight:bold;vertical-align:top;">version</td><td style="vertical-align:top;">:</td><td><div></div></td></tr></table></div></td></tr><tr><td style="font-weight:bold;vertical-align:top;">session_id_welcome</td><td style="vertical-align:top;">:</td><td><div>127.0.0.1-86c8b36e-facc-4567-84a0-91d87d62f16e<table><tr><td style="font-weight:bold;vertical-align:top;">comment</td><td style="vertical-align:top;">:</td><td><div></div></td></tr><tr><td style="font-weight:bold;vertical-align:top;">domain</td><td style="vertical-align:top;">:</td><td><div></div></td></tr><tr><td style="font-weight:bold;vertical-align:top;">expires</td><td style="vertical-align:top;">:</td><td><div></div></td></tr><tr><td style="font-weight:bold;vertical-align:top;">httponly</td><td style="vertical-align:top;">:</td><td><div></div></td></tr><tr><td style="font-weight:bold;vertical-align:top;">max-age</td><td style="vertical-align:top;">:</td><td><div></div></td></tr><tr><td style="font-weight:bold;vertical-align:top;">path</td><td style="vertical-align:top;">:</td><td><div></div></td></tr><tr><td style="font-weight:bold;vertical-align:top;">secure</td><td style="vertical-align:top;">:</td><td><div></div></td></tr><tr><td style="font-weight:bold;vertical-align:top;">version</td><td style="vertical-align:top;">:</td><td><div></div></td></tr></table></div></td></tr></table></div></td></tr><tr><td style="font-weight:bold;vertical-align:top;">env</td><td style="vertical-align:top;">:</td><td><div><table><tr><td style="font-weight:bold;vertical-align:top;">HTTP_ACCEPT</td><td style="vertical-align:top;">:</td><td><div>text/html,application/xhtml+xml,application/xml;q=0.9,image/webp,*/*;q=0.8</div></td></tr><tr><td style="font-weight:bold;vertical-align:top;">HTTP_ACCEPT_ENCODING</td><td style="vertical-align:top;">:</td><td><div>gzip, deflate, sdch</div></td></tr><tr><td style="font-weight:bold;vertical-align:top;">HTTP_ACCEPT_LANGUAGE</td><td style="vertical-align:top;">:</td><td><div>en-US,en;q=0.8</div></td></tr><tr><td style="font-weight:bold;vertical-align:top;">HTTP_CONNECTION</td><td style="vertical-align:top;">:</td><td><div>keep-alive</div></td></tr><tr><td style="font-weight:bold;vertical-align:top;">HTTP_COOKIE</td><td style="vertical-align:top;">:</td><td><div>gsScrollPos=; session_id_grievances=127.0.0.1-39bee78a-8e5b-4d17-ad2b-fa503b854ff7; session_id_moodleplus=127.0.0.1-1da20854-4832-4b2c-a05d-3e22d05c8dea; session_id_sample1=127.0.0.1-69257c23-3e3c-4433-8daa-b0ad4e8056af; _ga=GA1.1.333590026.1458794726; session_id_sample2=127.0.0.1-9b5af82d-a2f9-4dc5-9bb8-cace0eec1b34; session_id_welcome=127.0.0.1-86c8b36e-facc-4567-84a0-91d87d62f16e; session_id_admin=127.0.0.1-9942ebac-63c4-4689-80e7-24e695466b80; session_id_grs=127.0.0.1-603a76e3-219e-4ba6-a648-2e97648de564</div></td></tr><tr><td style="font-weight:bold;vertical-align:top;">HTTP_HOST</td><td style="vertical-align:top;">:</td><td><div>127.0.0.1:8000</div></td></tr><tr><td style="font-weight:bold;vertical-align:top;">HTTP_UPGRADE_INSECURE_REQUESTS</td><td style="vertical-align:top;">:</td><td><div>1</div></td></tr><tr><td style="font-weight:bold;vertical-align:top;">HTTP_USER_AGENT</td><td style="vertical-align:top;">:</td><td><div>Mozilla/5.0 (X11; Linux x86_64) AppleWebKit/537.36 (KHTML, like Gecko) Ubuntu Chromium/48.0.2564.116 Chrome/48.0.2564.116 Safari/537.36</div></td></tr><tr><td style="font-weight:bold;vertical-align:top;">PATH_INFO</td><td style="vertical-align:top;">:</td><td><div>/GRS/complaint/create.json</div></td></tr><tr><td style="font-weight:bold;vertical-align:top;">QUERY_STRING</td><td style="vertical-align:top;">:</td><td><div>complaint_domain_id=86&amp;complaint_title=tubelight&amp;complaint_details=started&amp;complaint_level_id=3&amp;posted_by=5&amp;upvotes_count=20&amp;photo_id=1</div></td></tr><tr><td style="font-weight:bold;vertical-align:top;">REMOTE_ADDR</td><td style="vertical-align:top;">:</td><td><div>127.0.0.1</div></td></tr><tr><td style="font-weight:bold;vertical-align:top;">REMOTE_PORT</td><td style="vertical-align:top;">:</td><td><div>48244</div></td></tr><tr><td style="font-weight:bold;vertical-align:top;">REQUEST_METHOD</td><td style="vertical-align:top;">:</td><td><div>GET</div></td></tr><tr><td style="font-weight:bold;vertical-align:top;">SCRIPT_NAME</td><td style="vertical-align:top;">:</td><td><div></div></td></tr><tr><td style="font-weight:bold;vertical-align:top;">SERVER_NAME</td><td style="vertical-align:top;">:</td><td><div>user-Z5WAH</div></td></tr><tr><td style="font-weight:bold;vertical-align:top;">SERVER_PORT</td><td style="vertical-align:top;">:</td><td><div>8000</div></td></tr><tr><td style="font-weight:bold;vertical-align:top;">SERVER_PROTOCOL</td><td style="vertical-align:top;">:</td><td><div>HTTP/1.1</div></td></tr><tr><td style="font-weight:bold;vertical-align:top;">SERVER_SOFTWARE</td><td style="vertical-align:top;">:</td><td><div>Rocket 1.2.6</div></td></tr><tr><td style="font-weight:bold;vertical-align:top;">app_folders</td><td style="vertical-align:top;">:</td><td><div>set([&#x27;/home/user/Local Disk E/COP290/assignment2/GRS_Grievances_Resolution_System/web2py/applications/welcome/&#x27;, &#x27;/home/user/Local Disk E/COP290/assignment2/GRS_Grievances_Resolution_System/web2py/applications/GRS/&#x27;, &#x27;/home/user/Local Disk E/COP290/assignment2/GRS_Grievances_Resolution_System/web2py/applications/admin/&#x27;])</div></td></tr><tr><td style="font-weight:bold;vertical-align:top;">applications_parent</td><td style="vertical-align:top;">:</td><td><div>/home/user/Local Disk E/COP290/assignment2/GRS_Grievances_Resolution_System/web2py</div></td></tr><tr><td style="font-weight:bold;vertical-align:top;">cmd_args</td><td style="vertical-align:top;">:</td><td><div><table></table></div></td></tr><tr><td style="font-weight:bold;vertical-align:top;">cmd_options</td><td style="vertical-align:top;">:</td><td><div>&lt;Values at 0x7fd46e333a28: {&#x27;verbose&#x27;: False, &#x27;ip&#x27;: &#x27;127.0.0.1&#x27;, &#x27;debuglevel&#x27;: 30, &#x27;with_scheduler&#x27;: False, &#x27;shutdown_timeout&#x27;: 5, &#x27;taskbar&#x27;: False, &#x27;with_coverage&#x27;: False, &#x27;pid_filename&#x27;: &#x27;httpserver.pid&#x27;, &#x27;maxthreads&#x27;: None, &#x27;softcron&#x27;: False, &#x27;server_name&#x27;: &#x27;user-Z5WAH&#x27;, &#x27;bpython&#x27;: False, &#x27;nogui&#x27;: False, &#x27;port&#x27;: 8000, &#x27;print_errors&#x27;: False, &#x27;extcron&#x27;: False, &#x27;runcron&#x27;: False, &#x27;run_system_tests&#x27;: False, &#x27;test&#x27;: None, &#x27;folder&#x27;: &#x27;/home/user/Local Disk E/COP290/assignment2/GRS_Grievances_Resolution_System/web2py&#x27;, &#x27;config&#x27;: &#x27;&#x27;, &#x27;minthreads&#x27;: None, &#x27;shell&#x27;: None, &#x27;run&#x27;: &#x27;&#x27;, &#x27;log_filename&#x27;: &#x27;httpserver.log&#x27;, &#x27;profiler_dir&#x27;: None, &#x27;args&#x27;: [&#x27;&#x27;], &#x27;socket_timeout&#x27;: 5, &#x27;ssl_ca_certificate&#x27;: None, &#x27;scheduler&#x27;: None, &#x27;interfaces&#x27;: None, &#x27;ssl_private_key&#x27;: &#x27;&#x27;, &#x27;gae&#x27;: None, &#x27;password&#x27;: &#x27;******&#x27;, &#x27;request_queue_size&#x27;: 5, &#x27;ssl_certificate&#x27;: &#x27;&#x27;, &#x27;cronjob&#x27;: False, &#x27;numthreads&#x27;: None, &#x27;quiet&#x27;: False, &#x27;import_models&#x27;: False, &#x27;timeout&#x27;: 10, &#x27;plain&#x27;: False, &#x27;nobanner&#x27;: False}&gt;</div></td></tr><tr><td style="font-weight:bold;vertical-align:top;">db_sessions</td><td style="vertical-align:top;">:</td><td><div>set([])</div></td></tr><tr><td style="font-weight:bold;vertical-align:top;">debugging</td><td style="vertical-align:top;">:</td><td><div>False</div></td></tr><tr><td style="font-weight:bold;vertical-align:top;">gluon_parent</td><td style="vertical-align:top;">:</td><td><div>/home/user/Local Disk E/COP290/assignment2/GRS_Grievances_Resolution_System/web2py</div></td></tr><tr><td style="font-weight:bold;vertical-align:top;">http_accept</td><td style="vertical-align:top;">:</td><td><div>text/html,application/xhtml+xml,application/xml;q=0.9,image/webp,*/*;q=0.8</div></td></tr><tr><td style="font-weight:bold;vertical-align:top;">http_accept_encoding</td><td style="vertical-align:top;">:</td><td><div>gzip, deflate, sdch</div></td></tr><tr><td style="font-weight:bold;vertical-align:top;">http_accept_language</td><td style="vertical-align:top;">:</td><td><div>en-US,en;q=0.8</div></td></tr><tr><td style="font-weight:bold;vertical-align:top;">http_connection</td><td style="vertical-align:top;">:</td><td><div>keep-alive</div></td></tr><tr><td style="font-weight:bold;vertical-align:top;">http_cookie</td><td style="vertical-align:top;">:</td><td><div>gsScrollPos=; session_id_grievances=127.0.0.1-39bee78a-8e5b-4d17-ad2b-fa503b854ff7; session_id_moodleplus=127.0.0.1-1da20854-4832-4b2c-a05d-3e22d05c8dea; session_id_sample1=127.0.0.1-69257c23-3e3c-4433-8daa-b0ad4e8056af; _ga=GA1.1.333590026.1458794726; session_id_sample2=127.0.0.1-9b5af82d-a2f9-4dc5-9bb8-cace0eec1b34; session_id_welcome=127.0.0.1-86c8b36e-facc-4567-84a0-91d87d62f16e; session_id_admin=127.0.0.1-9942ebac-63c4-4689-80e7-24e695466b80; session_id_grs=127.0.0.1-603a76e3-219e-4ba6-a648-2e97648de564</div></td></tr><tr><td style="font-weight:bold;vertical-align:top;">http_host</td><td style="vertical-align:top;">:</td><td><div>127.0.0.1:8000</div></td></tr><tr><td style="font-weight:bold;vertical-align:top;">http_upgrade_insecure_requests</td><td style="vertical-align:top;">:</td><td><div>1</div></td></tr><tr><td style="font-weight:bold;vertical-align:top;">http_user_agent</td><td style="vertical-align:top;">:</td><td><div>Mozilla/5.0 (X11; Linux x86_64) AppleWebKit/537.36 (KHTML, like Gecko) Ubuntu Chromium/48.0.2564.116 Chrome/48.0.2564.116 Safari/537.36</div></td></tr><tr><td style="font-weight:bold;vertical-align:top;">is_jython</td><td style="vertical-align:top;">:</td><td><div>False</div></td></tr><tr><td style="font-weight:bold;vertical-align:top;">is_pypy</td><td style="vertical-align:top;">:</td><td><div>False</div></td></tr><tr><td style="font-weight:bold;vertical-align:top;">is_source</td><td style="vertical-align:top;">:</td><td><div>True</div></td></tr><tr><td style="font-weight:bold;vertical-align:top;">local_hosts</td><td style="vertical-align:top;">:</td><td><div><table><tr><td><div>user-Z5WAH</div></td></tr><tr><td><div>::1</div></td></tr><tr><td><div>127.0.1.1</div></td></tr><tr><td><div>::ffff:127.0.0.1</div></td></tr><tr><td><div>127.0.0.1</div></td></tr></table></div></td></tr><tr><td style="font-weight:bold;vertical-align:top;">path_info</td><td style="vertical-align:top;">:</td><td><div>/GRS/complaint/create.json</div></td></tr><tr><td style="font-weight:bold;vertical-align:top;">query_string</td><td style="vertical-align:top;">:</td><td><div>complaint_domain_id=86&amp;complaint_title=tubelight&amp;complaint_details=started&amp;complaint_level_id=3&amp;posted_by=5&amp;upvotes_count=20&amp;photo_id=1</div></td></tr><tr><td style="font-weight:bold;vertical-align:top;">remote_addr</td><td style="vertical-align:top;">:</td><td><div>127.0.0.1</div></td></tr><tr><td style="font-weight:bold;vertical-align:top;">remote_port</td><td style="vertical-align:top;">:</td><td><div>48244</div></td></tr><tr><td style="font-weight:bold;vertical-align:top;">request_method</td><td style="vertical-align:top;">:</td><td><div>GET</div></td></tr><tr><td style="font-weight:bold;vertical-align:top;">request_uri</td><td style="vertical-align:top;">:</td><td><div>/GRS/complaint/create.json?complaint_domain_id=86&amp;complaint_title=tubelight&amp;complaint_details=started&amp;complaint_level_id=3&amp;posted_by=5&amp;upvotes_count=20&amp;photo_id=1</div></td></tr><tr><td style="font-weight:bold;vertical-align:top;">script_name</td><td style="vertical-align:top;">:</td><td><div></div></td></tr><tr><td style="font-weight:bold;vertical-align:top;">server_name</td><td style="vertical-align:top;">:</td><td><div>user-Z5WAH</div></td></tr><tr><td style="font-weight:bold;vertical-align:top;">server_port</td><td style="vertical-align:top;">:</td><td><div>8000</div></td></tr><tr><td style="font-weight:bold;vertical-align:top;">server_protocol</td><td style="vertical-align:top;">:</td><td><div>HTTP/1.1</div></td></tr><tr><td style="font-weight:bold;vertical-align:top;">server_software</td><td style="vertical-align:top;">:</td><td><div>Rocket 1.2.6</div></td></tr><tr><td style="font-weight:bold;vertical-align:top;">web2py_path</td><td style="vertical-align:top;">:</td><td><div>/home/user/Local Disk E/COP290/assignment2/GRS_Grievances_Resolution_System/web2py</div></td></tr><tr><td style="font-weight:bold;vertical-align:top;">web2py_version</td><td style="vertical-align:top;">:</td><td><div>2.14.2-stable+timestamp.2016.03.24.22.47.49</div></td></tr><tr><td style="font-weight:bold;vertical-align:top;">wsgi.errors</td><td style="vertical-align:top;">:</td><td><div>&lt;open file &#x27;&lt;stderr&gt;&#x27;, mode &#x27;w&#x27; at 0x7fd472c0c1e0&gt;</div></td></tr><tr><td style="font-weight:bold;vertical-align:top;">wsgi.file_wrapper</td><td style="vertical-align:top;">:</td><td><div>&lt;class wsgiref.util.FileWrapper at 0x7fd46dbddc80&gt;</div></td></tr><tr><td style="font-weight:bold;vertical-align:top;">wsgi.input</td><td style="vertical-align:top;">:</td><td><div>&lt;socket._fileobject object at 0x7fd435555a50&gt;</div></td></tr><tr><td style="font-weight:bold;vertical-align:top;">wsgi.multiprocess</td><td style="vertical-align:top;">:</td><td><div>False</div></td></tr><tr><td style="font-weight:bold;vertical-align:top;">wsgi.multithread</td><td style="vertical-align:top;">:</td><td><div>True</div></td></tr><tr><td style="font-weight:bold;vertical-align:top;">wsgi.run_once</td><td style="vertical-align:top;">:</td><td><div>False</div></td></tr><tr><td style="font-weight:bold;vertical-align:top;">wsgi.url_scheme</td><td style="vertical-align:top;">:</td><td><div>http</div></td></tr><tr><td style="font-weight:bold;vertical-align:top;">wsgi.version</td><td style="vertical-align:top;">:</td><td><div><table><tr><td><div>1</div></td></tr><tr><td><div>0</div></td></tr></table></div></td></tr><tr><td style="font-weight:bold;vertical-align:top;">wsgi_errors</td><td style="vertical-align:top;">:</td><td><div>&lt;open file &#x27;&lt;stderr&gt;&#x27;, mode &#x27;w&#x27; at 0x7fd472c0c1e0&gt;</div></td></tr><tr><td style="font-weight:bold;vertical-align:top;">wsgi_file_wrapper</td><td style="vertical-align:top;">:</td><td><div>&lt;class wsgiref.util.FileWrapper at 0x7fd46dbddc80&gt;</div></td></tr><tr><td style="font-weight:bold;vertical-align:top;">wsgi_input</td><td style="vertical-align:top;">:</td><td><div>&lt;socket._fileobject object at 0x7fd435555a50&gt;</div></td></tr><tr><td style="font-weight:bold;vertical-align:top;">wsgi_multiprocess</td><td style="vertical-align:top;">:</td><td><div>False</div></td></tr><tr><td style="font-weight:bold;vertical-align:top;">wsgi_multithread</td><td style="vertical-align:top;">:</td><td><div>True</div></td></tr><tr><td style="font-weight:bold;vertical-align:top;">wsgi_run_once</td><td style="vertical-align:top;">:</td><td><div>False</div></td></tr><tr><td style="font-weight:bold;vertical-align:top;">wsgi_url_scheme</td><td style="vertical-align:top;">:</td><td><div>http</div></td></tr><tr><td style="font-weight:bold;vertical-align:top;">wsgi_version</td><td style="vertical-align:top;">:</td><td><div><table><tr><td><div>1</div></td></tr><tr><td><div>0</div></td></tr></table></div></td></tr></table></div></td></tr><tr><td style="font-weight:bold;vertical-align:top;">extension</td><td style="vertical-align:top;">:</td><td><div>json</div></td></tr><tr><td style="font-weight:bold;vertical-align:top;">folder</td><td style="vertical-align:top;">:</td><td><div>/home/user/Local Disk E/COP290/assignment2/GRS_Grievances_Resolution_System/web2py/applications/GRS/</div></td></tr><tr><td style="font-weight:bold;vertical-align:top;">function</td><td style="vertical-align:top;">:</td><td><div>create</div></td></tr><tr><td style="font-weight:bold;vertical-align:top;">global_settings</td><td style="vertical-align:top;">:</td><td><div><table><tr><td style="font-weight:bold;vertical-align:top;">app_folders</td><td style="vertical-align:top;">:</td><td><div>set([&#x27;/home/user/Local Disk E/COP290/assignment2/GRS_Grievances_Resolution_System/web2py/applications/welcome/&#x27;, &#x27;/home/user/Local Disk E/COP290/assignment2/GRS_Grievances_Resolution_System/web2py/applications/GRS/&#x27;, &#x27;/home/user/Local Disk E/COP290/assignment2/GRS_Grievances_Resolution_System/web2py/applications/admin/&#x27;])</div></td></tr><tr><td style="font-weight:bold;vertical-align:top;">applications_parent</td><td style="vertical-align:top;">:</td><td><div>/home/user/Local Disk E/COP290/assignment2/GRS_Grievances_Resolution_System/web2py</div></td></tr><tr><td style="font-weight:bold;vertical-align:top;">cmd_args</td><td style="vertical-align:top;">:</td><td><div><table></table></div></td></tr><tr><td style="font-weight:bold;vertical-align:top;">cmd_options</td><td style="vertical-align:top;">:</td><td><div>&lt;Values at 0x7fd46e333a28: {&#x27;verbose&#x27;: False, &#x27;ip&#x27;: &#x27;127.0.0.1&#x27;, &#x27;debuglevel&#x27;: 30, &#x27;with_scheduler&#x27;: False, &#x27;shutdown_timeout&#x27;: 5, &#x27;taskbar&#x27;: False, &#x27;with_coverage&#x27;: False, &#x27;pid_filename&#x27;: &#x27;httpserver.pid&#x27;, &#x27;maxthreads&#x27;: None, &#x27;softcron&#x27;: False, &#x27;server_name&#x27;: &#x27;user-Z5WAH&#x27;, &#x27;bpython&#x27;: False, &#x27;nogui&#x27;: False, &#x27;port&#x27;: 8000, &#x27;print_errors&#x27;: False, &#x27;extcron&#x27;: False, &#x27;runcron&#x27;: False, &#x27;run_system_tests&#x27;: False, &#x27;test&#x27;: None, &#x27;folder&#x27;: &#x27;/home/user/Local Disk E/COP290/assignment2/GRS_Grievances_Resolution_System/web2py&#x27;, &#x27;config&#x27;: &#x27;&#x27;, &#x27;minthreads&#x27;: None, &#x27;shell&#x27;: None, &#x27;run&#x27;: &#x27;&#x27;, &#x27;log_filename&#x27;: &#x27;httpserver.log&#x27;, &#x27;profiler_dir&#x27;: None, &#x27;args&#x27;: [&#x27;&#x27;], &#x27;socket_timeout&#x27;: 5, &#x27;ssl_ca_certificate&#x27;: None, &#x27;scheduler&#x27;: None, &#x27;interfaces&#x27;: None, &#x27;ssl_private_key&#x27;: &#x27;&#x27;, &#x27;gae&#x27;: None, &#x27;password&#x27;: &#x27;******&#x27;, &#x27;request_queue_size&#x27;: 5, &#x27;ssl_certificate&#x27;: &#x27;&#x27;, &#x27;cronjob&#x27;: False, &#x27;numthreads&#x27;: None, &#x27;quiet&#x27;: False, &#x27;import_models&#x27;: False, &#x27;timeout&#x27;: 10, &#x27;plain&#x27;: False, &#x27;nobanner&#x27;: False}&gt;</div></td></tr><tr><td style="font-weight:bold;vertical-align:top;">db_sessions</td><td style="vertical-align:top;">:</td><td><div>set([])</div></td></tr><tr><td style="font-weight:bold;vertical-align:top;">debugging</td><td style="vertical-align:top;">:</td><td><div>False</div></td></tr><tr><td style="font-weight:bold;vertical-align:top;">gluon_parent</td><td style="vertical-align:top;">:</td><td><div>/home/user/Local Disk E/COP290/assignment2/GRS_Grievances_Resolution_System/web2py</div></td></tr><tr><td style="font-weight:bold;vertical-align:top;">is_jython</td><td style="vertical-align:top;">:</td><td><div>False</div></td></tr><tr><td style="font-weight:bold;vertical-align:top;">is_pypy</td><td style="vertical-align:top;">:</td><td><div>False</div></td></tr><tr><td style="font-weight:bold;vertical-align:top;">is_source</td><td style="vertical-align:top;">:</td><td><div>True</div></td></tr><tr><td style="font-weight:bold;vertical-align:top;">local_hosts</td><td style="vertical-align:top;">:</td><td><div><table><tr><td><div>user-Z5WAH</div></td></tr><tr><td><div>::1</div></td></tr><tr><td><div>127.0.1.1</div></td></tr><tr><td><div>::ffff:127.0.0.1</div></td></tr><tr><td><div>127.0.0.1</div></td></tr></table></div></td></tr><tr><td style="font-weight:bold;vertical-align:top;">web2py_version</td><td style="vertical-align:top;">:</td><td><div>2.14.2-stable+timestamp.2016.03.24.22.47.49</div></td></tr></table></div></td></tr><tr><td style="font-weight:bold;vertical-align:top;">is_https</td><td style="vertical-align:top;">:</td><td><div>False</div></td></tr><tr><td style="font-weight:bold;vertical-align:top;">is_local</td><td style="vertical-align:top;">:</td><td><div>True</div></td></tr><tr><td style="font-weight:bold;vertical-align:top;">is_restful</td><td style="vertical-align:top;">:</td><td><div>True</div></td></tr><tr><td style="font-weight:bold;vertical-align:top;">is_scheduler</td><td style="vertical-align:top;">:</td><td><div>False</div></td></tr><tr><td style="font-weight:bold;vertical-align:top;">is_shell</td><td style="vertical-align:top;">:</td><td><div>False</div></td></tr><tr><td style="font-weight:bold;vertical-align:top;">now</td><td style="vertical-align:top;">:</td><td><div>datetime.datetime(2016, 3, 28, 16, 28, 8, 212175)</div></td></tr><tr><td style="font-weight:bold;vertical-align:top;">raw_args</td><td style="vertical-align:top;">:</td><td><div></div></td></tr><tr><td style="font-weight:bold;vertical-align:top;">raw_extension</td><td style="vertical-align:top;">:</td><td><div>json</div></td></tr><tr><td style="font-weight:bold;vertical-align:top;">url</td><td style="vertical-align:top;">:</td><td><div>/GRS/complaint/create.json</div></td></tr><tr><td style="font-weight:bold;vertical-align:top;">utcnow</td><td style="vertical-align:top;">:</td><td><div>datetime.datetime(2016, 3, 28, 10, 58, 8, 212194)</div></td></tr><tr><td style="font-weight:bold;vertical-align:top;">wsgi</td><td style="vertical-align:top;">:</td><td><div>&lt;gluon.main.LazyWSGI object at 0x7fd435581e10&gt;</div></td></tr></table></div>'
tRp62
sS'frames'
p63
(lp64
(dp65
S'file'
p66
S'/home/user/Local Disk E/COP290/assignment2/GRS_Grievances_Resolution_System/web2py/gluon/restricted.py'
p67
sS'dump'
p68
(dp69
S'environment'
p70
S"{'A': <class 'gluon.html.A'>, 'ANY_OF': <class 'gluon.validators.ANY_OF'>, 'ASSIGNJS': <function ASSIGNJS>, 'AppConfig': <function AppConfig>, 'Auth': <class 'gluon.tools.Auth'>, 'B': <class 'gluon.html.B'>, 'BEAUTIFY': <class 'gluon.html.BEAUTIFY'>, 'BODY': <class 'gluon.html.BODY'>, 'BR': <class 'gluon.html.BR'>, 'BUTTON': <class 'gluon.html.BUTTON'>, ...}"
p71
sS'ccode'
p72
S'<code object <module> at 0x7fd43527eb30, file "/...plications/GRS/controllers/complaint.py", line 1>'
p73
ssS'lnum'
p74
I227
sS'lines'
p75
(dp76
I224
S'            ccode = code'
p77
sI225
S'        else:'
p78
sI226
S'            ccode = compile2(code, layer)'
p79
sI227
S'        exec ccode in environment'
p80
sI228
S'    except HTTP:'
p81
sI229
S'        raise'
p82
sI230
S'    except RestrictedError:'
p83
sI231
S'        # do not encapsulate (obfuscate) the original RestrictedError'
p84
sI222
S'    try:'
p85
sI223
S'        if isinstance(code, types.CodeType):'
p86
ssS'call'
p87
S"(code='@request.restful()\\ndef details():\\n\\tresponse.view...als()\\n\\n\\n\\nresponse._vars=response._caller(create)\\n', environment={'A': <class 'gluon.html.A'>, 'ANY_OF': <class 'gluon.validators.ANY_OF'>, 'ASSIGNJS': <function ASSIGNJS>, 'AppConfig': <function AppConfig>, 'Auth': <class 'gluon.tools.Auth'>, 'B': <class 'gluon.html.B'>, 'BEAUTIFY': <class 'gluon.html.BEAUTIFY'>, 'BODY': <class 'gluon.html.BODY'>, 'BR': <class 'gluon.html.BR'>, 'BUTTON': <class 'gluon.html.BUTTON'>, ...}, layer='/home/user/Local Disk E/COP290/assignment2/GRS_G.../web2py/applications/GRS/controllers/complaint.py')"
p88
sS'func'
p89
S'restricted'
p90
sa(dp91
g66
S'/home/user/Local Disk E/COP290/assignment2/GRS_Grievances_Resolution_System/web2py/applications/GRS/controllers/complaint.py'
p92
sg68
(dp93
sg74
I246
sg75
(dp94
I235
S'@request.restful()'
p95
sI236
S'def comment():'
p96
sI237
S"\tresponse.view = 'generic.json'"
p97
sI238
S'\tdef POST(*tmp_args,**follow_input):'
p98
sI239
S'\t\treturn db[db.comments].validate_and_insert(**follow_input)'
p99
sI240
S'\tdef GET(*tmp_args,**follow_input):'
p100
sI241
S'\t\treturn db[db.comments].validate_and_insert(**follow_input)'
p101
sI242
S'\treturn locals()'
p102
sI243
S''
sI244
S''
ssg87
S'()'
p103
sg89
S'<module>'
p104
sa(dp105
g66
S'/home/user/Local Disk E/COP290/assignment2/GRS_Grievances_Resolution_System/web2py/gluon/globals.py'
p106
sg68
(dp107
S'self'
p108
S'undefined'
p109
sS'f'
S'<function create>'
p110
ssg74
I417
sg75
(dp111
I416
S'        self._vars = None'
p112
sI417
S'        self._caller = lambda f: f()'
p113
sI418
S'        self._view_environment = None'
p114
sI419
S'        self._custom_commit = None'
p115
sI420
S'        self._custom_rollback = None'
p116
sI421
S"        self.generic_patterns = ['*']"
p117
sI412
S"        self.flash = ''            # used by the default view layout"
p118
sI413
S'        self.meta = Storage()      # used by web2py_ajax.html'
p119
sI414
S'        self.menu = []             # used by the default view layout'
p120
sI415
S'        self.files = []            # used by web2py_ajax.html'
p121
ssg87
S'(f=<function create>)'
p122
sg89
S'<lambda>'
p123
sa(dp124
g66
S'/home/user/Local Disk E/COP290/assignment2/GRS_Grievances_Resolution_System/web2py/gluon/globals.py'
p125
sg68
(dp126
S'rest_action'
p127
S'<function GET>'
p128
sS'res'
p129
g109
sS'request.args'
p130
S'[]'
p131
sS'request'
p132
S"<Storage {'_vars': <Storage {'complaint_level_id...ces_Resolution_System/web2py/applications/GRS/'}>"
p133
sS'request.vars'
p134
S"<Storage {'complaint_level_id': '3', 'photo_id':...aint_title': 'tubelight', 'upvotes_count': '20'}>"
p135
ssg74
I380
sg75
(dp136
I384
S'                except TypeError, e:'
p137
sI375
S'                rest_action = _action().get(method, None)'
p138
sI376
S'                if not (rest_action and method == method.upper()'
p139
sI377
S'                        and callable(rest_action)):'
p140
sI378
S'                    raise HTTP(405, "method not allowed")'
p141
sI379
S'                try:'
p142
sI380
S'                    res = rest_action(*request.args, **request.vars)'
p143
sI381
S'                    if is_json and not isinstance(res, str):'
p144
sI382
S'                        res = json(res)'
p145
sI383
S'                    return res'
p146
ssg87
S'(_action=<function create>, *a=(), **b={})'
p147
sg89
S'f'
sa(dp148
g66
S'/home/user/Local Disk E/COP290/assignment2/GRS_Grievances_Resolution_System/web2py/applications/GRS/controllers/complaint.py'
p149
sg68
(dp150
S'global db'
p151
S'<DAL uri="sqlite://storage.sqlite">'
p152
sS'cmplt'
p153
g109
sS'].validate_and_insert'
p154
S'<bound method Table.validate_and_insert of <Tabl..., redirected_by_user_id, redirected_to_user_id)>>'
p155
sS'db.complaints'
p156
S'<Table complaints (id, complaint_level_id, compl...d, redirected_by_user_id, redirected_to_user_id)>'
p157
sS'complaint_input'
p158
S"{'complaint_details': 'started', 'complaint_domain_id': '86', 'complaint_level_id': '3', 'complaint_title': 'tubelight', 'photo_id': '1', 'posted_by': '5', 'upvotes_count': '20'}"
p159
ssg74
I70
sg75
(dp160
I65
S'\t\tpresent_domain_name = db.complaint_domain.complaint_domain_name(id=request.vars.complaint_domain_id)'
p161
sI66
S'\t\treturn dict(ret = present_domain_name)'
p162
sI67
S'\t\t#if'
p163
sI68
S'\t\t#\tcmplt = db[db.complaints].validate_and_insert(**complaint_input)'
p164
sI69
S'\tdef GET(*tmp_args,**complaint_input):'
p165
sI70
S'\t\tcmplt = db[db.complaints].validate_and_insert(**complaint_input)'
p166
sI71
S'\t\tcomplaint_id = cmplt.id'
p167
sI72
S'\t\tuser_id = db.users(id=request.vars.posted_by)'
p168
sI73
S'\t\tpresent_domain_name = db.complaint_domain(id=request.vars.complaint_domain_id).complaint_domain_name'
p169
sI74
S'\t\tpresent_level_name = db.complaint_levels(id=db.complaint_domain(id=request.vars.complaint_domain_id).complaint_level_id).complaint_level_name'
p170
ssg87
S"(*tmp_args=(), **complaint_input={'complaint_details': 'started', 'complaint_domain_id': '86', 'complaint_level_id': '3', 'complaint_title': 'tubelight', 'photo_id': '1', 'posted_by': '5', 'upvotes_count': '20'})"
p171
sg89
S'GET'
p172
sa(dp173
g66
S'/home/user/Local Disk E/COP290/assignment2/GRS_Grievances_Resolution_System/web2py/gluon/packages/dal/pydal/objects.py'
p174
sg68
(dp175
S'self.insert'
p176
S'<bound method Table.insert of <Table complaints ..., redirected_by_user_id, redirected_to_user_id)>>'
p177
sS'response.id'
p178
S'None'
p179
sS'self'
p180
S'<Table complaints (id, complaint_level_id, compl...d, redirected_by_user_id, redirected_to_user_id)>'
p181
sS'new_fields'
p182
S"{'complaint_date': datetime.datetime(2016, 3, 28, 16, 28, 8, 427353), 'complaint_details': 'started', 'complaint_domain_id': '86', 'complaint_level_id': '3', 'complaint_title': 'tubelight', 'date_posted': datetime.datetime(2016, 3, 28, 16, 28, 8, 427425), 'date_resolved': datetime.datetime(2016, 3, 28, 16, 28, 8, 427453), 'photo_id': 1, 'posted_by': '5', 'upvotes_count': 20}"
p183
sS'response'
p184
S"<Row {'errors': {}, 'id': None}>"
p185
ssg74
I751
sg75
(dp186
I746
S'        return response, new_fields'
p187
sI747
S''
sI748
S'    def validate_and_insert(self, **fields):'
p188
sI749
S'        response, new_fields = self._validate_fields(fields)'
p189
sI750
S'        if not response.errors:'
p190
sI751
S'            response.id = self.insert(**new_fields)'
p191
sI752
S'        return response'
p192
sI753
S''
sI754
S'    def validate_and_update(self, _key=DEFAULT, **fields):'
p193
sI755
S"        response, new_fields = self._validate_fields(fields, 'update')"
p194
ssg87
S"(self=<Table complaints (id, complaint_level_id, compl...d, redirected_by_user_id, redirected_to_user_id)>, **fields={'complaint_details': 'started', 'complaint_domain_id': '86', 'complaint_level_id': '3', 'complaint_title': 'tubelight', 'photo_id': '1', 'posted_by': '5', 'upvotes_count': '20'})"
p195
sg89
S'validate_and_insert'
p196
sa(dp197
g66
S'/home/user/Local Disk E/COP290/assignment2/GRS_Grievances_Resolution_System/web2py/gluon/packages/dal/pydal/objects.py'
p198
sg68
(dp199
S'self._listify'
p200
S'<bound method Table._listify of <Table complaint..., redirected_by_user_id, redirected_to_user_id)>>'
p201
sS'fields'
p202
S"{'complaint_date': datetime.datetime(2016, 3, 28, 16, 28, 8, 427353), 'complaint_details': 'started', 'complaint_domain_id': '86', 'complaint_level_id': '3', 'complaint_title': 'tubelight', 'date_posted': datetime.datetime(2016, 3, 28, 16, 28, 8, 427425), 'date_resolved': datetime.datetime(2016, 3, 28, 16, 28, 8, 427453), 'photo_id': 1, 'posted_by': '5', 'upvotes_count': 20}"
p203
sS'self'
p204
S'<Table complaints (id, complaint_level_id, compl...d, redirected_by_user_id, redirected_to_user_id)>'
p205
sS'ret'
p206
g109
sS'self._db._adapter'
p207
S'<pydal.adapters.sqlite.SQLiteAdapter object>'
p208
sS'self._db._adapter.insert'
p209
S'<bound method SQLiteAdapter.insert of <pydal.adapters.sqlite.SQLiteAdapter object>>'
p210
sS'self._db'
p211
S'<DAL uri="sqlite://storage.sqlite">'
p212
ssg74
I726
sg75
(dp213
I721
S'    def insert(self, **fields):'
p214
sI722
S'        fields = self._defaults(fields)'
p215
sI723
S'        self._attempt_upload(fields)'
p216
sI724
S'        if any(f(fields) for f in self._before_insert):'
p217
sI725
S'            return 0'
p218
sI726
S'        ret = self._db._adapter.insert(self, self._listify(fields))'
p219
sI727
S'        if ret and self._after_insert:'
p220
sI728
S'            fields = Row(fields)'
p221
sI729
S'            [f(fields, ret) for f in self._after_insert]'
p222
sI730
S'        return ret'
p223
ssg87
S"(self=<Table complaints (id, complaint_level_id, compl...d, redirected_by_user_id, redirected_to_user_id)>, **fields={'complaint_date': datetime.datetime(2016, 3, 28, 16, 28, 8, 427353), 'complaint_details': 'started', 'complaint_domain_id': '86', 'complaint_level_id': '3', 'complaint_title': 'tubelight', 'date_posted': datetime.datetime(2016, 3, 28, 16, 28, 8, 427425), 'date_resolved': datetime.datetime(2016, 3, 28, 16, 28, 8, 427453), 'photo_id': 1, 'posted_by': '5', 'upvotes_count': 20})"
p224
sg89
S'insert'
p225
sa(dp226
g66
S'/home/user/Local Disk E/COP290/assignment2/GRS_Grievances_Resolution_System/web2py/gluon/packages/dal/pydal/adapters/base.py'
p227
sg68
(dp228
S'e'
S"OperationalError('database is locked',)"
p229
ssg74
I746
sg75
(dp230
I741
S'            self.execute(query)'
p231
sI742
S'        except Exception:'
p232
sI743
S'            e = sys.exc_info()[1]'
p233
sI744
S"            if hasattr(table,'_on_insert_error'):"
p234
sI745
S'                return table._on_insert_error(table,fields,e)'
p235
sI746
S'            raise e'
p236
sI747
S"        if hasattr(table, '_primarykey'):"
p237
sI748
S'            mydict = dict([(k[0].name, k[1]) for k in fields if k[0].name in table._primarykey])'
p238
sI749
S'            if mydict != {}:'
p239
sI750
S'                return mydict'
p240
ssg87
S"(self=<pydal.adapters.sqlite.SQLiteAdapter object>, table=<Table complaints (id, complaint_level_id, compl...d, redirected_by_user_id, redirected_to_user_id)>, fields=[(<pydal.objects.Field object>, '3'), (<pydal.objects.Field object>, 1), (<pydal.objects.Field object>, '86'), (<pydal.objects.Field object>, '5'), (<pydal.objects.Field object>, 20), (<pydal.objects.Field object>, datetime.datetime(2016, 3, 28, 16, 28, 8, 427453)), (<pydal.objects.Field object>, 'started'), (<pydal.objects.Field object>, datetime.datetime(2016, 3, 28, 16, 28, 8, 427353)), (<pydal.objects.Field object>, 'tubelight'), (<pydal.objects.Field object>, datetime.datetime(2016, 3, 28, 16, 28, 8, 427425))])"
p241
sg89
g225
sasS'pyver'
p242
S'Python 2.7.10: /usr/bin/python (prefix: /usr)'
p243
sS'session'
p244
g61
(S's\x1a\x00\x00\x00<div><table></table></div>'
tRp245
sS'etype'
p246
S"<class 'sqlite3.OperationalError'>"
p247
sS'date'
p248
S'Mon Mar 28 16:28:13 2016'
p249
sS'response'
p250
g61
(S'sZ>\x00\x00<div><table><tr><td style="font-weight:bold;vertical-align:top;">body</td><td style="vertical-align:top;">:</td><td><div>&lt;cStringIO.StringO object at 0x7fd43587dbc8&gt;</div></td></tr><tr><td style="font-weight:bold;vertical-align:top;">cookies</td><td style="vertical-align:top;">:</td><td><div><table><tr><td style="font-weight:bold;vertical-align:top;">session_id_grs</td><td style="vertical-align:top;">:</td><td><div>127.0.0.1-af875a64-037a-40c0-9889-f950da2b9ead<table><tr><td style="font-weight:bold;vertical-align:top;">comment</td><td style="vertical-align:top;">:</td><td><div></div></td></tr><tr><td style="font-weight:bold;vertical-align:top;">domain</td><td style="vertical-align:top;">:</td><td><div></div></td></tr><tr><td style="font-weight:bold;vertical-align:top;">expires</td><td style="vertical-align:top;">:</td><td><div></div></td></tr><tr><td style="font-weight:bold;vertical-align:top;">httponly</td><td style="vertical-align:top;">:</td><td><div></div></td></tr><tr><td style="font-weight:bold;vertical-align:top;">max-age</td><td style="vertical-align:top;">:</td><td><div></div></td></tr><tr><td style="font-weight:bold;vertical-align:top;">path</td><td style="vertical-align:top;">:</td><td><div>/</div></td></tr><tr><td style="font-weight:bold;vertical-align:top;">secure</td><td style="vertical-align:top;">:</td><td><div></div></td></tr><tr><td style="font-weight:bold;vertical-align:top;">version</td><td style="vertical-align:top;">:</td><td><div></div></td></tr></table></div></td></tr></table></div></td></tr><tr><td style="font-weight:bold;vertical-align:top;">delimiters</td><td style="vertical-align:top;">:</td><td><div><table><tr><td><div>{{</div></td></tr><tr><td><div>}}</div></td></tr></table></div></td></tr><tr><td style="font-weight:bold;vertical-align:top;">files</td><td style="vertical-align:top;">:</td><td><div><table></table></div></td></tr><tr><td style="font-weight:bold;vertical-align:top;">flash</td><td style="vertical-align:top;">:</td><td><div></div></td></tr><tr><td style="font-weight:bold;vertical-align:top;">form_label_separator</td><td style="vertical-align:top;">:</td><td><div></div></td></tr><tr><td style="font-weight:bold;vertical-align:top;">formstyle</td><td style="vertical-align:top;">:</td><td><div>bootstrap3_inline</div></td></tr><tr><td style="font-weight:bold;vertical-align:top;">generic_patterns</td><td style="vertical-align:top;">:</td><td><div><table><tr><td><div>*</div></td></tr></table></div></td></tr><tr><td style="font-weight:bold;vertical-align:top;">google_analytics_id</td><td style="vertical-align:top;">:</td><td><div>None</div></td></tr><tr><td style="font-weight:bold;vertical-align:top;">headers</td><td style="vertical-align:top;">:</td><td><div><table><tr><td style="font-weight:bold;vertical-align:top;">X-Powered-By</td><td style="vertical-align:top;">:</td><td><div>web2py</div></td></tr></table></div></td></tr><tr><td style="font-weight:bold;vertical-align:top;">logo</td><td style="vertical-align:top;">:</td><td><div><a class="navbar-brand" href="http://www.web2py.com/" id="web2py-logo"><b>web<span>2</span>py</b>&trade;&nbsp;</a></div></td></tr><tr><td style="font-weight:bold;vertical-align:top;">menu</td><td style="vertical-align:top;">:</td><td><div><table><tr><td><div><table><tr><td><div>Home</div></td></tr><tr><td><div>False</div></td></tr><tr><td><div>/GRS/default/index.json</div></td></tr><tr><td><div><table></table></div></td></tr></table></div></td></tr><tr><td><div><table><tr><td><div>My Sites</div></td></tr><tr><td><div>False</div></td></tr><tr><td><div>/admin/default/site.json</div></td></tr></table></div></td></tr><tr><td><div><table><tr><td><div>This App</div></td></tr><tr><td><div>False</div></td></tr><tr><td><div>#</div></td></tr><tr><td><div><table><tr><td><div><table><tr><td><div>Design</div></td></tr><tr><td><div>False</div></td></tr><tr><td><div>/admin/default/design.json/GRS</div></td></tr></table></div></td></tr><tr><td><div><li class="divider"></li></div></td></tr><tr><td><div><table><tr><td><div>Controller</div></td></tr><tr><td><div>False</div></td></tr><tr><td><div>/admin/default/edit.json/GRS/controllers/complaint.py</div></td></tr></table></div></td></tr><tr><td><div><table><tr><td><div>View</div></td></tr><tr><td><div>False</div></td></tr><tr><td><div>/admin/default/edit.json/GRS/views/complaint/create.json</div></td></tr></table></div></td></tr><tr><td><div><table><tr><td><div>DB Model</div></td></tr><tr><td><div>False</div></td></tr><tr><td><div>/admin/default/edit.json/GRS/models/db.py</div></td></tr></table></div></td></tr><tr><td><div><table><tr><td><div>Menu Model</div></td></tr><tr><td><div>False</div></td></tr><tr><td><div>/admin/default/edit.json/GRS/models/menu.py</div></td></tr></table></div></td></tr><tr><td><div><table><tr><td><div>Config.ini</div></td></tr><tr><td><div>False</div></td></tr><tr><td><div>/admin/default/edit.json/GRS/private/appconfig.ini</div></td></tr></table></div></td></tr><tr><td><div><table><tr><td><div>Layout</div></td></tr><tr><td><div>False</div></td></tr><tr><td><div>/admin/default/edit.json/GRS/views/layout.html</div></td></tr></table></div></td></tr><tr><td><div><table><tr><td><div>Stylesheet</div></td></tr><tr><td><div>False</div></td></tr><tr><td><div>/admin/default/edit.json/GRS/static/css/web2py-bootstrap3.css</div></td></tr></table></div></td></tr><tr><td><div><table><tr><td><div>Database</div></td></tr><tr><td><div>False</div></td></tr><tr><td><div>/GRS/appadmin/index.json</div></td></tr></table></div></td></tr><tr><td><div><table><tr><td><div>Errors</div></td></tr><tr><td><div>False</div></td></tr><tr><td><div>/admin/default/errors.json/GRS</div></td></tr></table></div></td></tr><tr><td><div><table><tr><td><div>About</div></td></tr><tr><td><div>False</div></td></tr><tr><td><div>/admin/default/about.json/GRS</div></td></tr></table></div></td></tr></table></div></td></tr></table></div></td></tr><tr><td><div><table><tr><td><div>web2py.com</div></td></tr><tr><td><div>False</div></td></tr><tr><td><div>#</div></td></tr><tr><td><div><table><tr><td><div><table><tr><td><div>Download</div></td></tr><tr><td><div>False</div></td></tr><tr><td><div>http://www.web2py.com/examples/default/download</div></td></tr></table></div></td></tr><tr><td><div><table><tr><td><div>Support</div></td></tr><tr><td><div>False</div></td></tr><tr><td><div>http://www.web2py.com/examples/default/support</div></td></tr></table></div></td></tr><tr><td><div><table><tr><td><div>Demo</div></td></tr><tr><td><div>False</div></td></tr><tr><td><div>http://web2py.com/demo_admin</div></td></tr></table></div></td></tr><tr><td><div><table><tr><td><div>Quick Examples</div></td></tr><tr><td><div>False</div></td></tr><tr><td><div>http://web2py.com/examples/default/examples</div></td></tr></table></div></td></tr><tr><td><div><table><tr><td><div>FAQ</div></td></tr><tr><td><div>False</div></td></tr><tr><td><div>http://web2py.com/AlterEgo</div></td></tr></table></div></td></tr><tr><td><div><table><tr><td><div>Videos</div></td></tr><tr><td><div>False</div></td></tr><tr><td><div>http://www.web2py.com/examples/default/videos/</div></td></tr></table></div></td></tr><tr><td><div><table><tr><td><div>Free Applications</div></td></tr><tr><td><div>False</div></td></tr><tr><td><div>http://web2py.com/appliances</div></td></tr></table></div></td></tr><tr><td><div><table><tr><td><div>Plugins</div></td></tr><tr><td><div>False</div></td></tr><tr><td><div>http://web2py.com/plugins</div></td></tr></table></div></td></tr><tr><td><div><table><tr><td><div>Recipes</div></td></tr><tr><td><div>False</div></td></tr><tr><td><div>http://web2pyslices.com/</div></td></tr></table></div></td></tr></table></div></td></tr></table></div></td></tr><tr><td><div><table><tr><td><div>Documentation</div></td></tr><tr><td><div>False</div></td></tr><tr><td><div>#</div></td></tr><tr><td><div><table><tr><td><div><table><tr><td><div>Online book</div></td></tr><tr><td><div>False</div></td></tr><tr><td><div>http://www.web2py.com/book</div></td></tr></table></div></td></tr><tr><td><div><li class="divider"></li></div></td></tr><tr><td><div><table><tr><td><div>Preface</div></td></tr><tr><td><div>False</div></td></tr><tr><td><div>http://www.web2py.com/book/default/chapter/00</div></td></tr></table></div></td></tr><tr><td><div><table><tr><td><div>Introduction</div></td></tr><tr><td><div>False</div></td></tr><tr><td><div>http://www.web2py.com/book/default/chapter/01</div></td></tr></table></div></td></tr><tr><td><div><table><tr><td><div>Python</div></td></tr><tr><td><div>False</div></td></tr><tr><td><div>http://www.web2py.com/book/default/chapter/02</div></td></tr></table></div></td></tr><tr><td><div><table><tr><td><div>Overview</div></td></tr><tr><td><div>False</div></td></tr><tr><td><div>http://www.web2py.com/book/default/chapter/03</div></td></tr></table></div></td></tr><tr><td><div><table><tr><td><div>The Core</div></td></tr><tr><td><div>False</div></td></tr><tr><td><div>http://www.web2py.com/book/default/chapter/04</div></td></tr></table></div></td></tr><tr><td><div><table><tr><td><div>The Views</div></td></tr><tr><td><div>False</div></td></tr><tr><td><div>http://www.web2py.com/book/default/chapter/05</div></td></tr></table></div></td></tr><tr><td><div><table><tr><td><div>Database</div></td></tr><tr><td><div>False</div></td></tr><tr><td><div>http://www.web2py.com/book/default/chapter/06</div></td></tr></table></div></td></tr><tr><td><div><table><tr><td><div>Forms and Validators</div></td></tr><tr><td><div>False</div></td></tr><tr><td><div>http://www.web2py.com/book/default/chapter/07</div></td></tr></table></div></td></tr><tr><td><div><table><tr><td><div>Email and SMS</div></td></tr><tr><td><div>False</div></td></tr><tr><td><div>http://www.web2py.com/book/default/chapter/08</div></td></tr></table></div></td></tr><tr><td><div><table><tr><td><div>Access Control</div></td></tr><tr><td><div>False</div></td></tr><tr><td><div>http://www.web2py.com/book/default/chapter/09</div></td></tr></table></div></td></tr><tr><td><div><table><tr><td><div>Services</div></td></tr><tr><td><div>False</div></td></tr><tr><td><div>http://www.web2py.com/book/default/chapter/10</div></td></tr></table></div></td></tr><tr><td><div><table><tr><td><div>Ajax Recipes</div></td></tr><tr><td><div>False</div></td></tr><tr><td><div>http://www.web2py.com/book/default/chapter/11</div></td></tr></table></div></td></tr><tr><td><div><table><tr><td><div>Components and Plugins</div></td></tr><tr><td><div>False</div></td></tr><tr><td><div>http://www.web2py.com/book/default/chapter/12</div></td></tr></table></div></td></tr><tr><td><div><table><tr><td><div>Deployment Recipes</div></td></tr><tr><td><div>False</div></td></tr><tr><td><div>http://www.web2py.com/book/default/chapter/13</div></td></tr></table></div></td></tr><tr><td><div><table><tr><td><div>Other Recipes</div></td></tr><tr><td><div>False</div></td></tr><tr><td><div>http://www.web2py.com/book/default/chapter/14</div></td></tr></table></div></td></tr><tr><td><div><table><tr><td><div>Helping web2py</div></td></tr><tr><td><div>False</div></td></tr><tr><td><div>http://www.web2py.com/book/default/chapter/15</div></td></tr></table></div></td></tr><tr><td><div><table><tr><td><div>Buy web2py\'s book</div></td></tr><tr><td><div>False</div></td></tr><tr><td><div>http://stores.lulu.com/web2py</div></td></tr></table></div></td></tr></table></div></td></tr></table></div></td></tr><tr><td><div><table><tr><td><div>Community</div></td></tr><tr><td><div>False</div></td></tr><tr><td><div>None</div></td></tr><tr><td><div><table><tr><td><div><table><tr><td><div>Groups</div></td></tr><tr><td><div>False</div></td></tr><tr><td><div>http://www.web2py.com/examples/default/usergroups</div></td></tr></table></div></td></tr><tr><td><div><table><tr><td><div>Twitter</div></td></tr><tr><td><div>False</div></td></tr><tr><td><div>http://twitter.com/web2py</div></td></tr></table></div></td></tr><tr><td><div><table><tr><td><div>Live Chat</div></td></tr><tr><td><div>False</div></td></tr><tr><td><div>http://webchat.freenode.net/?channels=web2py</div></td></tr></table></div></td></tr></table></div></td></tr></table></div></td></tr></table></div></td></tr><tr><td style="font-weight:bold;vertical-align:top;">meta</td><td style="vertical-align:top;">:</td><td><div><table><tr><td style="font-weight:bold;vertical-align:top;">author</td><td style="vertical-align:top;">:</td><td><div>Your Name &lt;you@example.com&gt;</div></td></tr><tr><td style="font-weight:bold;vertical-align:top;">description</td><td style="vertical-align:top;">:</td><td><div>a cool new app</div></td></tr><tr><td style="font-weight:bold;vertical-align:top;">generator</td><td style="vertical-align:top;">:</td><td><div>Web2py Web Framework</div></td></tr><tr><td style="font-weight:bold;vertical-align:top;">keywords</td><td style="vertical-align:top;">:</td><td><div><table><tr><td><div>web2py</div></td></tr><tr><td><div>python</div></td></tr><tr><td><div>framework</div></td></tr></table></div></td></tr></table></div></td></tr><tr><td style="font-weight:bold;vertical-align:top;">models_to_run</td><td style="vertical-align:top;">:</td><td><div><table><tr><td><div>^\\w+\\.py$</div></td></tr><tr><td><div>^complaint/\\w+\\.py$</div></td></tr><tr><td><div>^complaint/create/\\w+\\.py$</div></td></tr></table></div></td></tr><tr><td style="font-weight:bold;vertical-align:top;">postprocessing</td><td style="vertical-align:top;">:</td><td><div><table></table></div></td></tr><tr><td style="font-weight:bold;vertical-align:top;">session_client</td><td style="vertical-align:top;">:</td><td><div>127.0.0.1</div></td></tr><tr><td style="font-weight:bold;vertical-align:top;">session_cookie_compression_level</td><td style="vertical-align:top;">:</td><td><div>None</div></td></tr><tr><td style="font-weight:bold;vertical-align:top;">session_cookie_expires</td><td style="vertical-align:top;">:</td><td><div>None</div></td></tr><tr><td style="font-weight:bold;vertical-align:top;">session_data_name</td><td style="vertical-align:top;">:</td><td><div>session_data_grs</div></td></tr><tr><td style="font-weight:bold;vertical-align:top;">session_file</td><td style="vertical-align:top;">:</td><td><div>None</div></td></tr><tr><td style="font-weight:bold;vertical-align:top;">session_filename</td><td style="vertical-align:top;">:</td><td><div>/home/user/Local Disk E/COP290/assignment2/GRS_Grievances_Resolution_System/web2py/applications/GRS/sessions/127.0.0.1-af875a64-037a-40c0-9889-f950da2b9ead</div></td></tr><tr><td style="font-weight:bold;vertical-align:top;">session_hash</td><td style="vertical-align:top;">:</td><td><div>c0762cbf4baf7f9af97c051e7fcb8083</div></td></tr><tr><td style="font-weight:bold;vertical-align:top;">session_id</td><td style="vertical-align:top;">:</td><td><div>127.0.0.1-af875a64-037a-40c0-9889-f950da2b9ead</div></td></tr><tr><td style="font-weight:bold;vertical-align:top;">session_id_name</td><td style="vertical-align:top;">:</td><td><div>session_id_grs</div></td></tr><tr><td style="font-weight:bold;vertical-align:top;">session_masterapp</td><td style="vertical-align:top;">:</td><td><div>GRS</div></td></tr><tr><td style="font-weight:bold;vertical-align:top;">session_new</td><td style="vertical-align:top;">:</td><td><div>True</div></td></tr><tr><td style="font-weight:bold;vertical-align:top;">session_storage_type</td><td style="vertical-align:top;">:</td><td><div>file</div></td></tr><tr><td style="font-weight:bold;vertical-align:top;">status</td><td style="vertical-align:top;">:</td><td><div>200</div></td></tr><tr><td style="font-weight:bold;vertical-align:top;">subtitle</td><td style="vertical-align:top;">:</td><td><div></div></td></tr><tr><td style="font-weight:bold;vertical-align:top;">title</td><td style="vertical-align:top;">:</td><td><div>Grs</div></td></tr><tr><td style="font-weight:bold;vertical-align:top;">view</td><td style="vertical-align:top;">:</td><td><div>generic.json</div></td></tr></table></div>'
tRp251
sS'locals'
p252
(dp253
S'query'
p254
S'"INSERT INTO complaints(complaint_level_id,photo_...-28 16:28:08\',\'tubelight\',\'2016-03-28 16:28:08\');"'
p255
sS'self'
p256
S'<pydal.adapters.sqlite.SQLiteAdapter object>'
p257
sS'e'
S"OperationalError('database is locked',)"
p258
sS'fields'
p259
S"[(<pydal.objects.Field object>, '3'), (<pydal.objects.Field object>, 1), (<pydal.objects.Field object>, '86'), (<pydal.objects.Field object>, '5'), (<pydal.objects.Field object>, 20), (<pydal.objects.Field object>, datetime.datetime(2016, 3, 28, 16, 28, 8, 427453)), (<pydal.objects.Field object>, 'started'), (<pydal.objects.Field object>, datetime.datetime(2016, 3, 28, 16, 28, 8, 427353)), (<pydal.objects.Field object>, 'tubelight'), (<pydal.objects.Field object>, datetime.datetime(2016, 3, 28, 16, 28, 8, 427425))]"
p260
sS'table'
p261
S'<Table complaints (id, complaint_level_id, compl...d, redirected_by_user_id, redirected_to_user_id)>'
p262
sssS'traceback'
p263
S'Traceback (most recent call last):\n  File "/home/user/Local Disk E/COP290/assignment2/GRS_Grievances_Resolution_System/web2py/gluon/restricted.py", line 227, in restricted\n    exec ccode in environment\n  File "/home/user/Local Disk E/COP290/assignment2/GRS_Grievances_Resolution_System/web2py/applications/GRS/controllers/complaint.py", line 246, in <module>\n  File "/home/user/Local Disk E/COP290/assignment2/GRS_Grievances_Resolution_System/web2py/gluon/globals.py", line 417, in <lambda>\n    self._caller = lambda f: f()\n  File "/home/user/Local Disk E/COP290/assignment2/GRS_Grievances_Resolution_System/web2py/gluon/globals.py", line 380, in f\n    res = rest_action(*request.args, **request.vars)\n  File "/home/user/Local Disk E/COP290/assignment2/GRS_Grievances_Resolution_System/web2py/applications/GRS/controllers/complaint.py", line 70, in GET\n    cmplt = db[db.complaints].validate_and_insert(**complaint_input)\n  File "/home/user/Local Disk E/COP290/assignment2/GRS_Grievances_Resolution_System/web2py/gluon/packages/dal/pydal/objects.py", line 751, in validate_and_insert\n    response.id = self.insert(**new_fields)\n  File "/home/user/Local Disk E/COP290/assignment2/GRS_Grievances_Resolution_System/web2py/gluon/packages/dal/pydal/objects.py", line 726, in insert\n    ret = self._db._adapter.insert(self, self._listify(fields))\n  File "/home/user/Local Disk E/COP290/assignment2/GRS_Grievances_Resolution_System/web2py/gluon/packages/dal/pydal/adapters/base.py", line 746, in insert\n    raise e\nOperationalError: database is locked\n'
p264
s.