(dp1
S'output'
p2
S"<type 'exceptions.AttributeError'> "
p3
sS'layer'
p4
S'/home/user/Local Disk E/COP290/assignment2_1/GRS_Grievances_Resolution_System/web2py/applications/GRS/controllers/complaint.py'
p5
sS'code'
p6
S"@request.restful()\ndef details():\n\tresponse.view = 'generic.json'\n\tdef GET(complaint_id):\n\t\treturn dict(data = db.complaints(id=complaint_id))\n\treturn locals()\n\n@request.restful()\ndef levels():\n\tresponse.view = 'generic.json'\n\tdef GET():\n\t\treturn dict(data = db(db.complaint_levels.id>0).select())\n\treturn locals()\n\n@request.restful()\ndef domains():\n\tresponse.view = 'generic.json'\n\tdef GET(level_id):\n\t\treturn dict(data = db(db.complaint_domain.complaint_level_id==level_id).select())\n\treturn locals()\n\n@request.restful()\ndef bookmark():\n\tresponse.view = 'generic.json'\n\tdef GET(complaint_id):\n\t\tdata = db(db.bookmarks.complaint_id==complaint_id).select()\n\t\tif len(data)>0:\n\t\t\treturn dict(bookmarked = True)\n\t\telse:\n\t\t\treturn dict(bookmarked = False)\n\treturn locals()\n\n@request.restful()\ndef status():\n\tresponse.view = 'generic.json'\n\tdef GET(*tmp_args,**status_input):\n\t\tif(tmp_args[0]=='comment'):\n\t\t\tret_status = db[db.status_comments].validate_and_insert(**status_input)\n\t\t\tbook_usrs = db(db.bookmarks.complaint_id==request.vars.complaint_id).select()\n\t\t\tfor index in range(len(book_usrs)):\n\t\t\t\tnotif = db.notifications.insert(user_id=book_usrs[index].user_id,notification_type=2,notification_item_id=ret_cmnt)\n\t\t\treturn ret_status\n\t\telse:\n\t\t\tret_status = db[db.complaint_status].validate_and_insert(**status_input)\n\t\t\tbook_usrs = db(db.bookmarks.complaint_id==request.vars.complaint_id).select()\n\t\t\tfor index in range(len(book_usrs)):\n\t\t\t\tnotif = db.notifications.insert(user_id=book_usrs[index].user_id,notification_type=2,notification_item_id=ret_cmnt)\n\t\t\treturn ret_status\n\tdef POST(*tmp_args,**status_input):\n\t\tif(tmp_args[0]=='comment'):\n\t\t\tret_status = db[db.status_comments].validate_and_insert(**status_input)\n\t\t\tbook_usrs = db(db.bookmarks.complaint_id==request.vars.complaint_id).select()\n\t\t\tfor index in range(len(book_usrs)):\n\t\t\t\tnotif = db.notifications.insert(user_id=book_usrs[index].user_id,notification_type=2,notification_item_id=ret_cmnt)\n\t\t\treturn ret_status\n\t\telse:\n\t\t\tret_status = db[db.complaint_status].validate_and_insert(**status_input)\n\t\t\tbook_usrs = db(db.bookmarks.complaint_id==request.vars.complaint_id).select()\n\t\t\tfor index in range(len(book_usrs)):\n\t\t\t\tnotif = db.notifications.insert(user_id=book_usrs[index].user_id,notification_type=2,notification_item_id=ret_cmnt)\n\t\t\treturn ret_status\n\treturn locals()\n\n@request.restful()\ndef complaints():\n\tresponse.view = 'generic.json'\n\tdef GET(complaint_section,user_id):\n\t\tdef is_in_group(grp_id,usr_id):\n\t\t\tif not grp_id :\n\t\t\t\treturn False\n\t\t\tmembership = db(db.group_members.user_id==usr_id and db.group_members.group_id==58).select()\n\t\t\treturn dict(mem=membership)\n\t\t\tif (not membership):\n\t\t\t\treturn False\n\t\t\treturn True\n\t\t#return is_in_group(58,user_id)\n\t\tif(complaint_section=='bookmarked'):\n\t\t\tall_made = db(db.bookmarks.complaint_id>0).select()\n\t\t\tret = []\n\t\t\tfor index in range(len(all_made)):\n\t\t\t\tfrom_user = all_made[index].user_id\n\t\t\t\tto_group = all_made[index].group_id\n\t\t\t\tuser_id1 = db.users(id=user_id).id\n\t\t\t\tif(from_user == user_id1):\n\t\t\t\t\tret.append(all_made[index])\n\t\t\t\telse:\n\t\t\t\t\tall_members = db(db.group_members.group_id==to_group).select()\n\t\t\t\t\tfor index1 in range(len(all_members)):\n\t\t\t\t\t\tuser1 = db.users(id=all_members[index1].user_id).id\n\t\t\t\t\t\treturn dict(efw = user1, ewq=user_id1, ewdd=(user1==user_id1))\n\t\t\t\t\t\tif(user1==user_id1):\n\t\t\t\t\t\t\tret.append(all_made[index])\n\t\t\treturn dict(data = ret)\n\t\telif(complaint_section=='concern'):\n\t\t\tall_made = db(db.complaints_concerning_user.complaint_id>0).select()\n\t\t\tret = []\n\t\t\tfor index in range(len(all_made)):\n\t\t\t\tfrom_user = all_made[index].user_id\n\t\t\t\tto_group = all_made[index].group_id\n\t\t\t\tuser_id1 = db.users(id=user_id).id\n\t\t\t\tif(from_user == user_id1):\n\t\t\t\t\tret.append(all_made[index])\n\t\t\t\telse:\n\t\t\t\t\tall_members = db(db.group_members.group_id==to_group).select()\n\t\t\t\t\tfor index1 in range(len(all_members)):\n\t\t\t\t\t\tuser1 = db.users(id=all_members[index1].user_id).id\n\t\t\t\t\t\treturn dict(efw = user1, ewq=user_id1, ewdd=(user1==user_id1))\n\t\t\t\t\t\tif(user1==user_id1):\n\t\t\t\t\t\t\tret.append(all_made[index])\n\t\t\treturn dict(data = ret)\n\t\telif(complaint_section=='resolve'):\n\t\t\tall_made = db(db.complaints_with_resolving_rights_to_user.complaint_id>0).select()\n\t\t\tret = []\n\t\t\tfor index in range(len(all_made)):\n\t\t\t\tfrom_user = all_made[index].user_id\n\t\t\t\tto_group = all_made[index].group_id\n\t\t\t\tuser_id1 = db.users(id=user_id).id\n\t\t\t\tif(from_user == user_id1):\n\t\t\t\t\tret.append(all_made[index])\n\t\t\t\telse:\n\t\t\t\t\tall_members = db(db.group_members.group_id==to_group).select()\n\t\t\t\t\tfor index1 in range(len(all_members)):\n\t\t\t\t\t\tuser1 = db.users(id=all_members[index1].user_id).id\n\t\t\t\t\t\treturn dict(efw = user1, ewq=user_id1, ewdd=(user1==user_id1))\n\t\t\t\t\t\tif(user1==user_id1):\n\t\t\t\t\t\t\tret.append(all_made[index])\n\t\t\treturn dict(data = ret)\n\t\telif(complaint_section=='solve'):\n\t\t\tall_made = db(db.complaints_made_to_user.complaint_id>0).select()\n\t\t\tret = []\n\t\t\tfor index in range(len(all_made)):\n\t\t\t\tfrom_user = all_made[index].user_id\n\t\t\t\tto_group = all_made[index].group_id\n\t\t\t\tuser_id1 = db.users(id=user_id).id\n\t\t\t\tif(from_user == user_id1):\n\t\t\t\t\tret.append(all_made[index])\n\t\t\t\telse:\n\t\t\t\t\tall_members = db(db.group_members.group_id==to_group).select()\n\t\t\t\t\tfor index1 in range(len(all_members)):\n\t\t\t\t\t\tuser1 = db.users(id=all_members[index1].user_id).id\n\t\t\t\t\t\treturn dict(efw = user1, ewq=user_id1, ewdd=(user1==user_id1))\n\t\t\t\t\t\tif(user1==user_id1):\n\t\t\t\t\t\t\tret.append(all_made[index])\n\t\t\treturn dict(data = ret)\n\treturn locals()\n\n\n@request.restful()\ndef create():\n\tresponse.view = 'generic.json'\n\tdef POST(*tmp_args,**complaint_input):\n\t\tcmplt = db[db.complaints].validate_and_insert(**complaint_input)\n\t\tcomplaint_id = cmplt.id\n\t\tuser_id = request.vars.user_id\n\t\tconcern = db.complaints_concerning_user.insert(complaint_id=complaint_id,user_id=user_id)\n\t\tpresent_domain_name = db.complaint_domain.complaint_domain_name(id=request.vars.complaint_domain_id)\n\t\treturn dict(ret = present_domain_name)\n\t\t#if\n\t\t#\tcmplt = db[db.complaints].validate_and_insert(**complaint_input)\n\tdef GET(*tmp_args,**complaint_input):\n\t\tcmplt = db[db.complaints].validate_and_insert(**complaint_input)\n\t\tcomplaint_id = cmplt.id\n\t\tuser_id = db.users(id=request.vars.posted_by)\n\t\tpresent_domain_name = db.complaint_domain(id=request.vars.complaint_domain_id).complaint_domain_name\n\t\tpresent_level_name = db.complaint_levels(id=db.complaint_domain(id=request.vars.complaint_domain_id).complaint_level_id).complaint_level_name\n\t\tif present_level_name=='Individual':\n\t\t\tcmplt_rslv = db.complaints_with_resolving_rights_to_user.insert(complaint_id=complaint_id,id_type=0,user_id=user_id)\n\t\t\tconcern = db.complaints_concerning_user.insert(complaint_id=complaint_id,id_type=0,user_id=user_id)\n\t\t\tif present_domain_name=='Electricity':\n\t\t\t\tcmplt = db.complaints_made_to_user.insert(complaint_id=complaint_id,id_type=1,group_id=db.user_group_names(group_name='Electricity Department').id)\n\t\t\telif present_domain_name=='Plumbing':\n\t\t\t\tcmplt = db.complaints_made_to_user.insert(complaint_id=complaint_id,id_type=1,group_id=db.user_group_names(group_name='Plumbing Department').id)\n\t\t\telif present_domain_name=='Carpentry':\n\t\t\t\tcmplt = db.complaints_made_to_user.insert(complaint_id=complaint_id,id_type=1,group_id=db.user_group_names(group_name='Carpentry Department').id)\n\t\t\telif present_domain_name=='UG Section':\n\t\t\t\tcmplt = db.complaints_made_to_user.insert(complaint_id=complaint_id,id_type=1,group_id=db.user_group_names(group_name='UG Section').id)\n\t\t\telif present_domain_name=='PG Section':\n\t\t\t\tcmplt = db.complaints_made_to_user.insert(complaint_id=complaint_id,id_type=1,group_id=db.user_group_names(group_name='PG Section').id)\n\t\t\telif present_domain_name=='Accounts Section':\n\t\t\t\tcmplt = db.complaints_made_to_user.insert(complaint_id=complaint_id,id_type=1,group_id=db.user_group_names(group_name='Accounts Section').id)\n\t\t\telif present_domain_name=='Students Counselling Service':\n\t\t\t\tcmplt = db.complaints_made_to_user.insert(complaint_id=complaint_id,id_type=1,group_id=db.user_group_names(group_name='Students Counselling Service').id)\n\t\t\telif present_domain_name=='Ragging':\n\t\t\t\tcmplt = db.complaints_made_to_user.insert(complaint_id=complaint_id,id_type=1,group_id=db.user_group_names(group_name='Students Counselling Service').id)\n\t\t\telif present_domain_name=='Hostel Administration':\n\t\t\t\thstl = db.users(id=user_id).hostel_id;\n\t\t\t\thostel_admin_grp = db.hostels(id=hstl).hostel_admin_group_id;\n\t\t\t\tcmplt = db.complaints_made_to_user.insert(complaint_id=complaint_id,id_type=1,group_id=hostel_admin_grp)\n\t\t\telif present_domain_name=='Security':\n\t\t\t\tcmplt = db.complaints_made_to_user.insert(complaint_id=complaint_id,id_type=1,group_id=db.user_group_names(group_name='Security Department').id)\n\t\t\t\n\n\t\t\telif present_domain_name=='Miscellaneous':\n\t\t\t\tcmplt = db[db.complaints].validate_and_insert(**complaint_input)\n\n\n\t\telif present_level_name=='Hostel':\n\n\t\t\thstl = db.users(id=user_id).hostel_id;\n\t\t\thostel_admin_grp = db.hostels(id=hstl).hostel_admin_group_id;\n\t\t\thostel_res_grp = db.hostels(id=hstl).hostel_residents_group_id;\n\t\t\tmess_secretry = db.hostel_management(hostel_id=hstl).mess_secretary_user_id\n\t\t\tmaintenance_secretry = db.hostel_management(hostel_id=hstl).mess_secretary_user_id\n\t\t\tsports_secretry = db.hostel_management(hostel_id=hstl).mess_secretary_user_id\n\t\t\tconcern = db.complaints_concerning_user.insert(complaint_id=complaint_id,id_type=1,group_id=hostel_res_grp)\n\t\t\tif present_domain_name=='Infrastructure':\n\t\t\t\tcmplt = db.complaints_made_to_user.insert(complaint_id=complaint_id,id_type=1,group_id=hostel_admin_grp)\n\t\t\t\tcmplt_rslv = db.complaints_with_resolving_rights_to_user.insert(complaint_id=complaint_id,id_type=1,group_id=hostel_admin_grp)\n\t\t\telif present_domain_name=='Mess':\n\t\t\t\tcmplt = db.complaints_made_to_user.insert(complaint_id=complaint_id,id_type=0,user_id=mess_secretry)\n\t\t\t\tcmplt_rslv = db.complaints_with_resolving_rights_to_user.insert(complaint_id=complaint_id,id_type=0,user_id=mess_secretry)\n\t\t\telif present_domain_name=='Administration':\n\t\t\t\tcmplt = db.complaints_made_to_user.insert(complaint_id=complaint_id,id_type=1,group_id=hostel_admin_grp)\n\t\t\t\tcmplt_rslv = db.complaints_with_resolving_rights_to_user.insert(complaint_id=complaint_id,id_type=1,group_id=hostel_admin_grp)\n\t\t\telif present_domain_name=='Security':\n\t\t\t\tcmplt = db.complaints_made_to_user.insert(complaint_id=complaint_id,id_type=1,group_id=hostel_admin_grp)\n\t\t\t\tcmplt_rslv = db.complaints_with_resolving_rights_to_user.insert(complaint_id=complaint_id,id_type=1,group_id=hostel_admin_grp)\n\t\t\telif present_domain_name=='Sports':\n\t\t\t\tcmplt = db.complaints_made_to_user.insert(complaint_id=complaint_id,id_type=0,user_id=sports_secretry)\n\t\t\t\tcmplt_rslv = db.complaints_with_resolving_rights_to_user.insert(complaint_id=complaint_id,id_type=0,user_id=sports_secretry)\n\t\t\telif present_domain_name=='Maintenance':\n\t\t\t\tcmplt = db.complaints_made_to_user.insert(complaint_id=complaint_id,id_type=0,user_id=maintenance_secretry)\n\t\t\t\tcmplt_rslv = db.complaints_with_resolving_rights_to_user.insert(complaint_id=complaint_id,id_type=0,user_id=maintenance_secretary)\n\n\t\t\telif present_domain_name=='Miscellaneous':\n\t\t\t\tcmplt = db.complaints_made_to_user.insert(complaint_id=complaint_id,id_type=1,group_id=hostel_admin_grp)\n\t\t\t\tcmplt_rslv = db.complaints_with_resolving_rights_to_user.insert(complaint_id=complaint_id,id_type=1,group_id=hostel_admin_grp)\n\n\t\telif present_level_name=='Institute':\n\t\t\tconcern = db.complaints_concerning_user.insert(complaint_id=complaint_id,id_type=1,group_id=db.user_group_names(group_name='Institute').id)\n\t\t\tif present_domain_name=='Infrastructure':\n\t\t\t\tcmplt = db.complaints_made_to_user.insert(complaint_id=complaint_id,id_type=1,group_id=db.user_group_names(group_name='Institute Administration').id)\n\t\t\t\tcmplt_rslv = db.complaints_with_resolving_rights_to_user.insert(complaint_id=complaint_id,id_type=1,group_id=db.user_group_names(group_name='Institute Administration').id)\n\t\t\telif present_domain_name=='Administration':\n\t\t\t\tcmplt = db.complaints_made_to_user.insert(complaint_id=complaint_id,id_type=1,group_id=db.user_group_names(group_name='Institute Administration').id)\n\t\t\t\tcmplt_rslv = db.complaints_with_resolving_rights_to_user.insert(complaint_id=complaint_id,id_type=1,group_id=db.user_group_names(group_name='Institute Administration').id)\n\t\t\telif present_domain_name=='Canteen and Food Outlets':\n\t\t\t\tcmplt = db.complaints_made_to_user.insert(complaint_id=complaint_id,id_type=1,group_id=db.user_group_names(group_name='Institute Administration').id)\n\t\t\t\tcmplt_rslv = db.complaints_with_resolving_rights_to_user.insert(complaint_id=complaint_id,id_type=1,group_id=db.user_group_names(group_name='Institute Administration').id)\n\t\t\t\tcmplt = db.complaints_made_to_user.insert(complaint_id=complaint_id,id_type=1,group_id=db.user_group_names(group_name='BSW').id)\n\t\t\t\tcmplt_rslv = db.complaints_with_resolving_rights_to_user.insert(complaint_id=complaint_id,id_type=1,group_id=db.user_group_names(group_name='BSW').id)\n\t\t\telif present_domain_name=='Security':\n\t\t\t\tcmplt = db.complaints_made_to_user.insert(complaint_id=complaint_id,id_type=1,group_id=db.user_group_names(group_name='Institute Administration').id)\n\t\t\t\tcmplt_rslv = db.complaints_with_resolving_rights_to_user.insert(complaint_id=complaint_id,id_type=1,group_id=db.user_group_names(group_name='Institute Administration').id)\n\t\t\t\tcmplt = db.complaints_made_to_user.insert(complaint_id=complaint_id,id_type=1,group_id=db.user_group_names(group_name='BSW').id)\n\t\t\t\tcmplt_rslv = db.complaints_with_resolving_rights_to_user.insert(complaint_id=complaint_id,id_type=1,group_id=db.user_group_names(group_name='BSW').id)\n\t\t\telif present_domain_name=='Sports':\n\t\t\t\tcmplt = db.complaints_made_to_user.insert(complaint_id=complaint_id,id_type=1,group_id=db.user_group_names(group_name='BSA').id)\n\t\t\t\tcmplt_rslv = db.complaints_with_resolving_rights_to_user.insert(complaint_id=complaint_id,id_type=1,group_id=db.user_group_names(group_name='BSA').id)\n\t\t\telif present_domain_name=='Culture':\n\t\t\t\tcmplt = db.complaints_made_to_user.insert(complaint_id=complaint_id,id_type=1,group_id=db.user_group_names(group_name='BRCA').id)\n\t\t\t\tcmplt_rslv = db.complaints_with_resolving_rights_to_user.insert(complaint_id=complaint_id,id_type=1,group_id=db.user_group_names(group_name='BRCA').id)\n\t\t\telif present_domain_name=='Academics':\n\t\t\t\tcmplt = db.complaints_made_to_user.insert(complaint_id=complaint_id,id_type=1,group_id=db.user_group_names(group_name='Institute Administration').id)\n\t\t\t\tcmplt_rslv = db.complaints_with_resolving_rights_to_user.insert(complaint_id=complaint_id,id_type=1,group_id=db.user_group_names(group_name='Institute Administration').id)\n\t\t\telif present_domain_name=='Computer Services Centre':\n\t\t\t\tcmplt = db.complaints_made_to_user.insert(complaint_id=complaint_id,id_type=1,group_id=db.user_group_names(group_name='Computer Services Centre').id)\n\t\t\t\tcmplt_rslv = db.complaints_with_resolving_rights_to_user.insert(complaint_id=complaint_id,id_type=1,group_id=db.user_group_names(group_name='Computer Services Centre').id)\n\t\t\telif present_domain_name=='Maintenance':\n\t\t\t\tcmplt = db.complaints_made_to_user.insert(complaint_id=complaint_id,id_type=1,group_id=db.user_group_names(group_name='Institute Administration').id)\n\t\t\t\tcmplt_rslv = db.complaints_with_resolving_rights_to_user.insert(complaint_id=complaint_id,id_type=1,group_id=db.user_group_names(group_name='Institute Administration').id)\n\n\n\t\t\telif present_domain_name=='Miscellaneous':\n\t\t\t\tcmplt = db[db.complaints].validate_and_insert(**complaint_input)\n\n\n\t\telse:\treturn dict(status = 'TO do===Miscellaneous')\n\treturn locals()\n\n@request.restful()\ndef vote():\n\tresponse.view = 'generic.json'\n\tdef POST(*tmp_args,**vote_input):\n\t\treturn db[db.votes].validate_and_insert(**vote_input)\n\tdef GET(*tmp_args,**vote_input):\n\t\treturn db[db.votes].validate_and_insert(**vote_input)\n\treturn locals()\n\n@request.restful()\ndef follow():\n\tresponse.view = 'generic.json'\n\tdef POST(*tmp_args,**follow_input):\n\t\treturn db[db.bookmarks].validate_and_insert(**follow_input)\n\tdef GET(*tmp_args,**follow_input):\n\t\treturn db[db.bookmarks].validate_and_insert(**follow_input)\n\treturn locals()\n\n@request.restful()\ndef read():\n\tresponse.view = 'generic.json'\n\tdef POST(*tmp_args,**follow_input):\n\t\treturn db[db.complaint_read].validate_and_insert(**follow_input)\n\tdef GET(*tmp_args,**follow_input):\n\t\treturn db[db.complaint_read].validate_and_insert(**follow_input)\n\treturn locals()\n\n@request.restful()\ndef is_read():\n\tresponse.view = 'generic.json'\n\tdef GET(complaint_id):\n\t\tdata = db(db.complaint_read.complaint_id==complaint_id).select()\n\t\tif len(data)>0:\n\t\t\treturn dict(read = True)\n\t\telse:\n\t\t\treturn dict(read = False)\n    \treturn locals()\n\n@request.restful()\ndef redirect():\n\tresponse.view = 'generic.json'\n\tdef POST(*tmp_args,**follow_input):\n\t\tuserid_from = request.vars.redirect_from\n\t\tredirect_type = request.vars.redirect_to_type\n\t\tuserid_to = request.vars.redirect_to\n\t\tcomplaint_id = request.vars.complaint_id\n\t\tdone = db.executesql('UPDATE complaints SET redirected_to_user_id='+userid_to+', redirected_to_type='+redirect_type+', redirected_by_user_id='+userid_from+' WHERE id='+complaint_id+';')\n\t\tif(redirect_type==0):\n\t\t\tsolve_add = db.complaints_made_to_user.insert(complaint_id=complaint_id,id_type=0,user_id=userid_to)\n\t\telse:\n\t\t\tsolve_add = db.complaints_made_to_user.insert(complaint_id=complaint_id,id_type=1,group_id=userid_to)\n\t\treturn dict(success=True)\n\tdef GET(*tmp_args,**follow_input):\n\t\tuserid_from = request.vars.redirect_from\n\t\tredirect_type = request.vars.redirect_to_type\n\t\tuserid_to = request.vars.redirect_to\n\t\tcomplaint_id = request.vars.complaint_id\n\t\tdone = db.executesql('UPDATE complaints SET redirected_to_user_id='+userid_to+', redirected_to_type='+redirect_type+', redirected_by_user_id='+userid_from+' WHERE id='+complaint_id+';')\n\t\tif(redirect_type==0):\n\t\t\tsolve_add = db.complaints_made_to_user.insert(complaint_id=complaint_id,id_type=0,user_id=userid_to)\n\t\telse:\n\t\t\tsolve_add = db.complaints_made_to_user.insert(complaint_id=complaint_id,id_type=1,group_id=userid_to)\n\t\treturn dict(success=True)\n\treturn locals()\n\n\n@request.restful()\ndef comment():\n\tresponse.view = 'generic.json'\n\tdef POST(*tmp_args,**follow_input):\n\t\tif not auth.is_logged_in():\n\t\t\treturn dict()\n\t\tret_cmnt = db[db.comments].validate_and_insert(**follow_input)\n\n\t\t#db.executesql('UPDATE comments SET user_id='+auth.user.id+' WHERE id='+ret_cmnt.id+';')\n\t\tret_cmnt.update(user_id=auth.user.id)\n\n\t\tbook_usrs = db(db.bookmarks.complaint_id==request.vars.complaint_id).select()\n\t\tfor index in range(len(book_usrs)):\n\t\t\tnotif = db.notifications.insert(user_id=book_usrs[index].user_id,notification_type=0,notification_item_id=ret_cmnt)\n\t\treturn ret_cmnt\n\tdef GET(*tmp_args,**follow_input):\n\t\tif not auth.is_logged_in():\n\t\t\treturn dict()\n\t\tret_cmnt = db[db.comments].validate_and_insert(**follow_input)\n\n#\t\tdb.executesql('UPDATE comments SET user_id='+str(auth.user.id)+' WHERE id='+str(ret_cmnt.id)+';')\n\t\tret_cmnt.update(user_id=auth.user.id)\n\t\tret_cmnt.delete()\n\n\t\tbook_usrs = db(db.bookmarks.complaint_id==request.vars.complaint_id).select()\n\t\tfor index in range(len(book_usrs)):\n\t\t\tnotif = db.notifications.insert(user_id=book_usrs[index].user_id,notification_type=0,notification_item_id=ret_cmnt)\n\t\treturn ret_cmnt\n\treturn locals()\n\n\n\nresponse._vars=response._caller(comment)\n"
p7
sS'snapshot'
p8
(dp9
S'exception'
p10
(dp11
S'__hash__'
p12
S"<method-wrapper '__hash__' of exceptions.AttributeError object>"
p13
sS'__setattr__'
p14
S"<method-wrapper '__setattr__' of exceptions.AttributeError object>"
p15
sS'__reduce_ex__'
p16
S'<built-in method __reduce_ex__ of exceptions.AttributeError object>'
p17
sS'__getslice__'
p18
S"<method-wrapper '__getslice__' of exceptions.AttributeError object>"
p19
sS'__getitem__'
p20
S"<method-wrapper '__getitem__' of exceptions.AttributeError object>"
p21
sS'__setstate__'
p22
S'<built-in method __setstate__ of exceptions.AttributeError object>'
p23
sS'args'
p24
S'()'
p25
sS'__reduce__'
p26
S'<built-in method __reduce__ of exceptions.AttributeError object>'
p27
sS'__str__'
p28
S"<method-wrapper '__str__' of exceptions.AttributeError object>"
p29
sS'__format__'
p30
S'<built-in method __format__ of exceptions.AttributeError object>'
p31
sS'__getattribute__'
p32
S"<method-wrapper '__getattribute__' of exceptions.AttributeError object>"
p33
sS'__class__'
p34
S"<type 'exceptions.AttributeError'>"
p35
sS'__unicode__'
p36
S'<built-in method __unicode__ of exceptions.AttributeError object>'
p37
sS'__delattr__'
p38
S"<method-wrapper '__delattr__' of exceptions.AttributeError object>"
p39
sS'__subclasshook__'
p40
S'<built-in method __subclasshook__ of type object>'
p41
sS'__repr__'
p42
S"<method-wrapper '__repr__' of exceptions.AttributeError object>"
p43
sS'__dict__'
p44
S'{}'
p45
sS'__sizeof__'
p46
S'<built-in method __sizeof__ of exceptions.AttributeError object>'
p47
sS'__doc__'
p48
S"'Attribute not found.'"
p49
sS'__init__'
p50
S"<method-wrapper '__init__' of exceptions.AttributeError object>"
p51
sS'__new__'
p52
S'<built-in method __new__ of type object>'
p53
ssS'evalue'
p54
S''
sS'request'
p55
cgluon.html
XML_unpickle
p56
(S'sRy\x00\x00<div><table><tr><td style="font-weight:bold;vertical-align:top;">ajax</td><td style="vertical-align:top;">:</td><td><div>False</div></td></tr><tr><td style="font-weight:bold;vertical-align:top;">application</td><td style="vertical-align:top;">:</td><td><div>GRS</div></td></tr><tr><td style="font-weight:bold;vertical-align:top;">args</td><td style="vertical-align:top;">:</td><td><div><table></table></div></td></tr><tr><td style="font-weight:bold;vertical-align:top;">cid</td><td style="vertical-align:top;">:</td><td><div>None</div></td></tr><tr><td style="font-weight:bold;vertical-align:top;">client</td><td style="vertical-align:top;">:</td><td><div>127.0.0.1</div></td></tr><tr><td style="font-weight:bold;vertical-align:top;">controller</td><td style="vertical-align:top;">:</td><td><div>complaint</div></td></tr><tr><td style="font-weight:bold;vertical-align:top;">cookies</td><td style="vertical-align:top;">:</td><td><div><table><tr><td style="font-weight:bold;vertical-align:top;">gsScrollPos</td><td style="vertical-align:top;">:</td><td><div><table><tr><td style="font-weight:bold;vertical-align:top;">comment</td><td style="vertical-align:top;">:</td><td><div></div></td></tr><tr><td style="font-weight:bold;vertical-align:top;">domain</td><td style="vertical-align:top;">:</td><td><div></div></td></tr><tr><td style="font-weight:bold;vertical-align:top;">expires</td><td style="vertical-align:top;">:</td><td><div></div></td></tr><tr><td style="font-weight:bold;vertical-align:top;">httponly</td><td style="vertical-align:top;">:</td><td><div></div></td></tr><tr><td style="font-weight:bold;vertical-align:top;">max-age</td><td style="vertical-align:top;">:</td><td><div></div></td></tr><tr><td style="font-weight:bold;vertical-align:top;">path</td><td style="vertical-align:top;">:</td><td><div></div></td></tr><tr><td style="font-weight:bold;vertical-align:top;">secure</td><td style="vertical-align:top;">:</td><td><div></div></td></tr><tr><td style="font-weight:bold;vertical-align:top;">version</td><td style="vertical-align:top;">:</td><td><div></div></td></tr></table></div></td></tr><tr><td style="font-weight:bold;vertical-align:top;">session_id_admin</td><td style="vertical-align:top;">:</td><td><div>127.0.0.1-9942ebac-63c4-4689-80e7-24e695466b80<table><tr><td style="font-weight:bold;vertical-align:top;">comment</td><td style="vertical-align:top;">:</td><td><div></div></td></tr><tr><td style="font-weight:bold;vertical-align:top;">domain</td><td style="vertical-align:top;">:</td><td><div></div></td></tr><tr><td style="font-weight:bold;vertical-align:top;">expires</td><td style="vertical-align:top;">:</td><td><div></div></td></tr><tr><td style="font-weight:bold;vertical-align:top;">httponly</td><td style="vertical-align:top;">:</td><td><div></div></td></tr><tr><td style="font-weight:bold;vertical-align:top;">max-age</td><td style="vertical-align:top;">:</td><td><div></div></td></tr><tr><td style="font-weight:bold;vertical-align:top;">path</td><td style="vertical-align:top;">:</td><td><div></div></td></tr><tr><td style="font-weight:bold;vertical-align:top;">secure</td><td style="vertical-align:top;">:</td><td><div></div></td></tr><tr><td style="font-weight:bold;vertical-align:top;">version</td><td style="vertical-align:top;">:</td><td><div></div></td></tr></table></div></td></tr><tr><td style="font-weight:bold;vertical-align:top;">session_id_grievances</td><td style="vertical-align:top;">:</td><td><div>127.0.0.1-39bee78a-8e5b-4d17-ad2b-fa503b854ff7<table><tr><td style="font-weight:bold;vertical-align:top;">comment</td><td style="vertical-align:top;">:</td><td><div></div></td></tr><tr><td style="font-weight:bold;vertical-align:top;">domain</td><td style="vertical-align:top;">:</td><td><div></div></td></tr><tr><td style="font-weight:bold;vertical-align:top;">expires</td><td style="vertical-align:top;">:</td><td><div></div></td></tr><tr><td style="font-weight:bold;vertical-align:top;">httponly</td><td style="vertical-align:top;">:</td><td><div></div></td></tr><tr><td style="font-weight:bold;vertical-align:top;">max-age</td><td style="vertical-align:top;">:</td><td><div></div></td></tr><tr><td style="font-weight:bold;vertical-align:top;">path</td><td style="vertical-align:top;">:</td><td><div></div></td></tr><tr><td style="font-weight:bold;vertical-align:top;">secure</td><td style="vertical-align:top;">:</td><td><div></div></td></tr><tr><td style="font-weight:bold;vertical-align:top;">version</td><td style="vertical-align:top;">:</td><td><div></div></td></tr></table></div></td></tr><tr><td style="font-weight:bold;vertical-align:top;">session_id_grs</td><td style="vertical-align:top;">:</td><td><div>127.0.0.1-34d6d6b5-e2a5-4d90-b44a-9640cb58e2f7<table><tr><td style="font-weight:bold;vertical-align:top;">comment</td><td style="vertical-align:top;">:</td><td><div></div></td></tr><tr><td style="font-weight:bold;vertical-align:top;">domain</td><td style="vertical-align:top;">:</td><td><div></div></td></tr><tr><td style="font-weight:bold;vertical-align:top;">expires</td><td style="vertical-align:top;">:</td><td><div></div></td></tr><tr><td style="font-weight:bold;vertical-align:top;">httponly</td><td style="vertical-align:top;">:</td><td><div></div></td></tr><tr><td style="font-weight:bold;vertical-align:top;">max-age</td><td style="vertical-align:top;">:</td><td><div></div></td></tr><tr><td style="font-weight:bold;vertical-align:top;">path</td><td style="vertical-align:top;">:</td><td><div></div></td></tr><tr><td style="font-weight:bold;vertical-align:top;">secure</td><td style="vertical-align:top;">:</td><td><div></div></td></tr><tr><td style="font-weight:bold;vertical-align:top;">version</td><td style="vertical-align:top;">:</td><td><div></div></td></tr></table></div></td></tr><tr><td style="font-weight:bold;vertical-align:top;">session_id_moodleplus</td><td style="vertical-align:top;">:</td><td><div>127.0.0.1-25637e95-9386-4286-82f2-1ebf4cebec13<table><tr><td style="font-weight:bold;vertical-align:top;">comment</td><td style="vertical-align:top;">:</td><td><div></div></td></tr><tr><td style="font-weight:bold;vertical-align:top;">domain</td><td style="vertical-align:top;">:</td><td><div></div></td></tr><tr><td style="font-weight:bold;vertical-align:top;">expires</td><td style="vertical-align:top;">:</td><td><div></div></td></tr><tr><td style="font-weight:bold;vertical-align:top;">httponly</td><td style="vertical-align:top;">:</td><td><div></div></td></tr><tr><td style="font-weight:bold;vertical-align:top;">max-age</td><td style="vertical-align:top;">:</td><td><div></div></td></tr><tr><td style="font-weight:bold;vertical-align:top;">path</td><td style="vertical-align:top;">:</td><td><div></div></td></tr><tr><td style="font-weight:bold;vertical-align:top;">secure</td><td style="vertical-align:top;">:</td><td><div></div></td></tr><tr><td style="font-weight:bold;vertical-align:top;">version</td><td style="vertical-align:top;">:</td><td><div></div></td></tr></table></div></td></tr><tr><td style="font-weight:bold;vertical-align:top;">session_id_sample1</td><td style="vertical-align:top;">:</td><td><div>127.0.0.1-69257c23-3e3c-4433-8daa-b0ad4e8056af<table><tr><td style="font-weight:bold;vertical-align:top;">comment</td><td style="vertical-align:top;">:</td><td><div></div></td></tr><tr><td style="font-weight:bold;vertical-align:top;">domain</td><td style="vertical-align:top;">:</td><td><div></div></td></tr><tr><td style="font-weight:bold;vertical-align:top;">expires</td><td style="vertical-align:top;">:</td><td><div></div></td></tr><tr><td style="font-weight:bold;vertical-align:top;">httponly</td><td style="vertical-align:top;">:</td><td><div></div></td></tr><tr><td style="font-weight:bold;vertical-align:top;">max-age</td><td style="vertical-align:top;">:</td><td><div></div></td></tr><tr><td style="font-weight:bold;vertical-align:top;">path</td><td style="vertical-align:top;">:</td><td><div></div></td></tr><tr><td style="font-weight:bold;vertical-align:top;">secure</td><td style="vertical-align:top;">:</td><td><div></div></td></tr><tr><td style="font-weight:bold;vertical-align:top;">version</td><td style="vertical-align:top;">:</td><td><div></div></td></tr></table></div></td></tr><tr><td style="font-weight:bold;vertical-align:top;">session_id_sample2</td><td style="vertical-align:top;">:</td><td><div>127.0.0.1-9b5af82d-a2f9-4dc5-9bb8-cace0eec1b34<table><tr><td style="font-weight:bold;vertical-align:top;">comment</td><td style="vertical-align:top;">:</td><td><div></div></td></tr><tr><td style="font-weight:bold;vertical-align:top;">domain</td><td style="vertical-align:top;">:</td><td><div></div></td></tr><tr><td style="font-weight:bold;vertical-align:top;">expires</td><td style="vertical-align:top;">:</td><td><div></div></td></tr><tr><td style="font-weight:bold;vertical-align:top;">httponly</td><td style="vertical-align:top;">:</td><td><div></div></td></tr><tr><td style="font-weight:bold;vertical-align:top;">max-age</td><td style="vertical-align:top;">:</td><td><div></div></td></tr><tr><td style="font-weight:bold;vertical-align:top;">path</td><td style="vertical-align:top;">:</td><td><div></div></td></tr><tr><td style="font-weight:bold;vertical-align:top;">secure</td><td style="vertical-align:top;">:</td><td><div></div></td></tr><tr><td style="font-weight:bold;vertical-align:top;">version</td><td style="vertical-align:top;">:</td><td><div></div></td></tr></table></div></td></tr><tr><td style="font-weight:bold;vertical-align:top;">session_id_welcome</td><td style="vertical-align:top;">:</td><td><div>127.0.0.1-2aa36f6c-96bf-4b44-aa47-e2ef5290a986<table><tr><td style="font-weight:bold;vertical-align:top;">comment</td><td style="vertical-align:top;">:</td><td><div></div></td></tr><tr><td style="font-weight:bold;vertical-align:top;">domain</td><td style="vertical-align:top;">:</td><td><div></div></td></tr><tr><td style="font-weight:bold;vertical-align:top;">expires</td><td style="vertical-align:top;">:</td><td><div></div></td></tr><tr><td style="font-weight:bold;vertical-align:top;">httponly</td><td style="vertical-align:top;">:</td><td><div></div></td></tr><tr><td style="font-weight:bold;vertical-align:top;">max-age</td><td style="vertical-align:top;">:</td><td><div></div></td></tr><tr><td style="font-weight:bold;vertical-align:top;">path</td><td style="vertical-align:top;">:</td><td><div></div></td></tr><tr><td style="font-weight:bold;vertical-align:top;">secure</td><td style="vertical-align:top;">:</td><td><div></div></td></tr><tr><td style="font-weight:bold;vertical-align:top;">version</td><td style="vertical-align:top;">:</td><td><div></div></td></tr></table></div></td></tr></table></div></td></tr><tr><td style="font-weight:bold;vertical-align:top;">env</td><td style="vertical-align:top;">:</td><td><div><table><tr><td style="font-weight:bold;vertical-align:top;">HTTP_ACCEPT</td><td style="vertical-align:top;">:</td><td><div>text/html,application/xhtml+xml,application/xml;q=0.9,image/webp,*/*;q=0.8</div></td></tr><tr><td style="font-weight:bold;vertical-align:top;">HTTP_ACCEPT_ENCODING</td><td style="vertical-align:top;">:</td><td><div>gzip, deflate, sdch</div></td></tr><tr><td style="font-weight:bold;vertical-align:top;">HTTP_ACCEPT_LANGUAGE</td><td style="vertical-align:top;">:</td><td><div>en-US,en;q=0.8</div></td></tr><tr><td style="font-weight:bold;vertical-align:top;">HTTP_CACHE_CONTROL</td><td style="vertical-align:top;">:</td><td><div>max-age=0</div></td></tr><tr><td style="font-weight:bold;vertical-align:top;">HTTP_CONNECTION</td><td style="vertical-align:top;">:</td><td><div>keep-alive</div></td></tr><tr><td style="font-weight:bold;vertical-align:top;">HTTP_COOKIE</td><td style="vertical-align:top;">:</td><td><div>gsScrollPos=; gsScrollPos=; session_id_grievances=127.0.0.1-39bee78a-8e5b-4d17-ad2b-fa503b854ff7; session_id_sample1=127.0.0.1-69257c23-3e3c-4433-8daa-b0ad4e8056af; session_id_sample2=127.0.0.1-9b5af82d-a2f9-4dc5-9bb8-cace0eec1b34; session_id_moodleplus=127.0.0.1-25637e95-9386-4286-82f2-1ebf4cebec13; _ga=GA1.1.333590026.1458794726; session_id_welcome=127.0.0.1-2aa36f6c-96bf-4b44-aa47-e2ef5290a986; session_id_admin=127.0.0.1-9942ebac-63c4-4689-80e7-24e695466b80; session_id_grs=127.0.0.1-34d6d6b5-e2a5-4d90-b44a-9640cb58e2f7</div></td></tr><tr><td style="font-weight:bold;vertical-align:top;">HTTP_HOST</td><td style="vertical-align:top;">:</td><td><div>127.0.0.1:8000</div></td></tr><tr><td style="font-weight:bold;vertical-align:top;">HTTP_UPGRADE_INSECURE_REQUESTS</td><td style="vertical-align:top;">:</td><td><div>1</div></td></tr><tr><td style="font-weight:bold;vertical-align:top;">HTTP_USER_AGENT</td><td style="vertical-align:top;">:</td><td><div>Mozilla/5.0 (X11; Linux x86_64) AppleWebKit/537.36 (KHTML, like Gecko) Ubuntu Chromium/48.0.2564.116 Chrome/48.0.2564.116 Safari/537.36</div></td></tr><tr><td style="font-weight:bold;vertical-align:top;">PATH_INFO</td><td style="vertical-align:top;">:</td><td><div>/GRS/complaint/comment.json</div></td></tr><tr><td style="font-weight:bold;vertical-align:top;">QUERY_STRING</td><td style="vertical-align:top;">:</td><td><div>complaint_id=40&amp;comment_made=many_to_go</div></td></tr><tr><td style="font-weight:bold;vertical-align:top;">REMOTE_ADDR</td><td style="vertical-align:top;">:</td><td><div>127.0.0.1</div></td></tr><tr><td style="font-weight:bold;vertical-align:top;">REMOTE_PORT</td><td style="vertical-align:top;">:</td><td><div>38996</div></td></tr><tr><td style="font-weight:bold;vertical-align:top;">REQUEST_METHOD</td><td style="vertical-align:top;">:</td><td><div>GET</div></td></tr><tr><td style="font-weight:bold;vertical-align:top;">SCRIPT_NAME</td><td style="vertical-align:top;">:</td><td><div></div></td></tr><tr><td style="font-weight:bold;vertical-align:top;">SERVER_NAME</td><td style="vertical-align:top;">:</td><td><div>user-Z5WAH</div></td></tr><tr><td style="font-weight:bold;vertical-align:top;">SERVER_PORT</td><td style="vertical-align:top;">:</td><td><div>8000</div></td></tr><tr><td style="font-weight:bold;vertical-align:top;">SERVER_PROTOCOL</td><td style="vertical-align:top;">:</td><td><div>HTTP/1.1</div></td></tr><tr><td style="font-weight:bold;vertical-align:top;">SERVER_SOFTWARE</td><td style="vertical-align:top;">:</td><td><div>Rocket 1.2.6</div></td></tr><tr><td style="font-weight:bold;vertical-align:top;">app_folders</td><td style="vertical-align:top;">:</td><td><div>set([&#x27;/home/user/Local Disk E/COP290/assignment2_1/GRS_Grievances_Resolution_System/web2py/applications/GRS/&#x27;, &#x27;/home/user/Local Disk E/COP290/assignment2_1/GRS_Grievances_Resolution_System/web2py/applications/welcome/&#x27;, &#x27;/home/user/Local Disk E/COP290/assignment2_1/GRS_Grievances_Resolution_System/web2py/applications/admin/&#x27;])</div></td></tr><tr><td style="font-weight:bold;vertical-align:top;">applications_parent</td><td style="vertical-align:top;">:</td><td><div>/home/user/Local Disk E/COP290/assignment2_1/GRS_Grievances_Resolution_System/web2py</div></td></tr><tr><td style="font-weight:bold;vertical-align:top;">cmd_args</td><td style="vertical-align:top;">:</td><td><div><table></table></div></td></tr><tr><td style="font-weight:bold;vertical-align:top;">cmd_options</td><td style="vertical-align:top;">:</td><td><div>&lt;Values at 0x7f6cf75c7908: {&#x27;verbose&#x27;: False, &#x27;ip&#x27;: &#x27;127.0.0.1&#x27;, &#x27;debuglevel&#x27;: 30, &#x27;with_scheduler&#x27;: False, &#x27;shutdown_timeout&#x27;: 5, &#x27;taskbar&#x27;: False, &#x27;with_coverage&#x27;: False, &#x27;pid_filename&#x27;: &#x27;httpserver.pid&#x27;, &#x27;maxthreads&#x27;: None, &#x27;softcron&#x27;: False, &#x27;server_name&#x27;: &#x27;user-Z5WAH&#x27;, &#x27;bpython&#x27;: False, &#x27;nogui&#x27;: False, &#x27;port&#x27;: 8000, &#x27;print_errors&#x27;: False, &#x27;extcron&#x27;: False, &#x27;runcron&#x27;: False, &#x27;run_system_tests&#x27;: False, &#x27;test&#x27;: None, &#x27;folder&#x27;: &#x27;/home/user/Local Disk E/COP290/assignment2_1/GRS_Grievances_Resolution_System/web2py&#x27;, &#x27;config&#x27;: &#x27;&#x27;, &#x27;minthreads&#x27;: None, &#x27;shell&#x27;: None, &#x27;run&#x27;: &#x27;&#x27;, &#x27;log_filename&#x27;: &#x27;httpserver.log&#x27;, &#x27;profiler_dir&#x27;: None, &#x27;args&#x27;: [&#x27;&#x27;], &#x27;socket_timeout&#x27;: 5, &#x27;ssl_ca_certificate&#x27;: None, &#x27;scheduler&#x27;: None, &#x27;interfaces&#x27;: None, &#x27;ssl_private_key&#x27;: &#x27;&#x27;, &#x27;gae&#x27;: None, &#x27;password&#x27;: &#x27;******&#x27;, &#x27;request_queue_size&#x27;: 5, &#x27;ssl_certificate&#x27;: &#x27;&#x27;, &#x27;cronjob&#x27;: False, &#x27;numthreads&#x27;: None, &#x27;quiet&#x27;: False, &#x27;import_models&#x27;: False, &#x27;timeout&#x27;: 10, &#x27;plain&#x27;: False, &#x27;nobanner&#x27;: False}&gt;</div></td></tr><tr><td style="font-weight:bold;vertical-align:top;">db_sessions</td><td style="vertical-align:top;">:</td><td><div>set([])</div></td></tr><tr><td style="font-weight:bold;vertical-align:top;">debugging</td><td style="vertical-align:top;">:</td><td><div>False</div></td></tr><tr><td style="font-weight:bold;vertical-align:top;">gluon_parent</td><td style="vertical-align:top;">:</td><td><div>/home/user/Local Disk E/COP290/assignment2_1/GRS_Grievances_Resolution_System/web2py</div></td></tr><tr><td style="font-weight:bold;vertical-align:top;">http_accept</td><td style="vertical-align:top;">:</td><td><div>text/html,application/xhtml+xml,application/xml;q=0.9,image/webp,*/*;q=0.8</div></td></tr><tr><td style="font-weight:bold;vertical-align:top;">http_accept_encoding</td><td style="vertical-align:top;">:</td><td><div>gzip, deflate, sdch</div></td></tr><tr><td style="font-weight:bold;vertical-align:top;">http_accept_language</td><td style="vertical-align:top;">:</td><td><div>en-US,en;q=0.8</div></td></tr><tr><td style="font-weight:bold;vertical-align:top;">http_cache_control</td><td style="vertical-align:top;">:</td><td><div>max-age=0</div></td></tr><tr><td style="font-weight:bold;vertical-align:top;">http_connection</td><td style="vertical-align:top;">:</td><td><div>keep-alive</div></td></tr><tr><td style="font-weight:bold;vertical-align:top;">http_cookie</td><td style="vertical-align:top;">:</td><td><div>gsScrollPos=; gsScrollPos=; session_id_grievances=127.0.0.1-39bee78a-8e5b-4d17-ad2b-fa503b854ff7; session_id_sample1=127.0.0.1-69257c23-3e3c-4433-8daa-b0ad4e8056af; session_id_sample2=127.0.0.1-9b5af82d-a2f9-4dc5-9bb8-cace0eec1b34; session_id_moodleplus=127.0.0.1-25637e95-9386-4286-82f2-1ebf4cebec13; _ga=GA1.1.333590026.1458794726; session_id_welcome=127.0.0.1-2aa36f6c-96bf-4b44-aa47-e2ef5290a986; session_id_admin=127.0.0.1-9942ebac-63c4-4689-80e7-24e695466b80; session_id_grs=127.0.0.1-34d6d6b5-e2a5-4d90-b44a-9640cb58e2f7</div></td></tr><tr><td style="font-weight:bold;vertical-align:top;">http_host</td><td style="vertical-align:top;">:</td><td><div>127.0.0.1:8000</div></td></tr><tr><td style="font-weight:bold;vertical-align:top;">http_upgrade_insecure_requests</td><td style="vertical-align:top;">:</td><td><div>1</div></td></tr><tr><td style="font-weight:bold;vertical-align:top;">http_user_agent</td><td style="vertical-align:top;">:</td><td><div>Mozilla/5.0 (X11; Linux x86_64) AppleWebKit/537.36 (KHTML, like Gecko) Ubuntu Chromium/48.0.2564.116 Chrome/48.0.2564.116 Safari/537.36</div></td></tr><tr><td style="font-weight:bold;vertical-align:top;">is_jython</td><td style="vertical-align:top;">:</td><td><div>False</div></td></tr><tr><td style="font-weight:bold;vertical-align:top;">is_pypy</td><td style="vertical-align:top;">:</td><td><div>False</div></td></tr><tr><td style="font-weight:bold;vertical-align:top;">is_source</td><td style="vertical-align:top;">:</td><td><div>True</div></td></tr><tr><td style="font-weight:bold;vertical-align:top;">local_hosts</td><td style="vertical-align:top;">:</td><td><div><table><tr><td><div>user-Z5WAH</div></td></tr><tr><td><div>::1</div></td></tr><tr><td><div>127.0.1.1</div></td></tr><tr><td><div>::ffff:127.0.0.1</div></td></tr><tr><td><div>127.0.0.1</div></td></tr></table></div></td></tr><tr><td style="font-weight:bold;vertical-align:top;">path_info</td><td style="vertical-align:top;">:</td><td><div>/GRS/complaint/comment.json</div></td></tr><tr><td style="font-weight:bold;vertical-align:top;">query_string</td><td style="vertical-align:top;">:</td><td><div>complaint_id=40&amp;comment_made=many_to_go</div></td></tr><tr><td style="font-weight:bold;vertical-align:top;">remote_addr</td><td style="vertical-align:top;">:</td><td><div>127.0.0.1</div></td></tr><tr><td style="font-weight:bold;vertical-align:top;">remote_port</td><td style="vertical-align:top;">:</td><td><div>38996</div></td></tr><tr><td style="font-weight:bold;vertical-align:top;">request_method</td><td style="vertical-align:top;">:</td><td><div>GET</div></td></tr><tr><td style="font-weight:bold;vertical-align:top;">request_uri</td><td style="vertical-align:top;">:</td><td><div>/GRS/complaint/comment.json?complaint_id=40&amp;comment_made=many_to_go</div></td></tr><tr><td style="font-weight:bold;vertical-align:top;">script_name</td><td style="vertical-align:top;">:</td><td><div></div></td></tr><tr><td style="font-weight:bold;vertical-align:top;">server_name</td><td style="vertical-align:top;">:</td><td><div>user-Z5WAH</div></td></tr><tr><td style="font-weight:bold;vertical-align:top;">server_port</td><td style="vertical-align:top;">:</td><td><div>8000</div></td></tr><tr><td style="font-weight:bold;vertical-align:top;">server_protocol</td><td style="vertical-align:top;">:</td><td><div>HTTP/1.1</div></td></tr><tr><td style="font-weight:bold;vertical-align:top;">server_software</td><td style="vertical-align:top;">:</td><td><div>Rocket 1.2.6</div></td></tr><tr><td style="font-weight:bold;vertical-align:top;">web2py_path</td><td style="vertical-align:top;">:</td><td><div>/home/user/Local Disk E/COP290/assignment2_1/GRS_Grievances_Resolution_System/web2py</div></td></tr><tr><td style="font-weight:bold;vertical-align:top;">web2py_version</td><td style="vertical-align:top;">:</td><td><div>2.14.2-stable+timestamp.2016.03.24.22.47.49</div></td></tr><tr><td style="font-weight:bold;vertical-align:top;">wsgi.errors</td><td style="vertical-align:top;">:</td><td><div>&lt;open file &#x27;&lt;stderr&gt;&#x27;, mode &#x27;w&#x27; at 0x7f6cfc1451e0&gt;</div></td></tr><tr><td style="font-weight:bold;vertical-align:top;">wsgi.file_wrapper</td><td style="vertical-align:top;">:</td><td><div>&lt;class wsgiref.util.FileWrapper at 0x7f6cf74b3c80&gt;</div></td></tr><tr><td style="font-weight:bold;vertical-align:top;">wsgi.input</td><td style="vertical-align:top;">:</td><td><div>&lt;socket._fileobject object at 0x7f6cb61ce1d0&gt;</div></td></tr><tr><td style="font-weight:bold;vertical-align:top;">wsgi.multiprocess</td><td style="vertical-align:top;">:</td><td><div>False</div></td></tr><tr><td style="font-weight:bold;vertical-align:top;">wsgi.multithread</td><td style="vertical-align:top;">:</td><td><div>True</div></td></tr><tr><td style="font-weight:bold;vertical-align:top;">wsgi.run_once</td><td style="vertical-align:top;">:</td><td><div>False</div></td></tr><tr><td style="font-weight:bold;vertical-align:top;">wsgi.url_scheme</td><td style="vertical-align:top;">:</td><td><div>http</div></td></tr><tr><td style="font-weight:bold;vertical-align:top;">wsgi.version</td><td style="vertical-align:top;">:</td><td><div><table><tr><td><div>1</div></td></tr><tr><td><div>0</div></td></tr></table></div></td></tr><tr><td style="font-weight:bold;vertical-align:top;">wsgi_errors</td><td style="vertical-align:top;">:</td><td><div>&lt;open file &#x27;&lt;stderr&gt;&#x27;, mode &#x27;w&#x27; at 0x7f6cfc1451e0&gt;</div></td></tr><tr><td style="font-weight:bold;vertical-align:top;">wsgi_file_wrapper</td><td style="vertical-align:top;">:</td><td><div>&lt;class wsgiref.util.FileWrapper at 0x7f6cf74b3c80&gt;</div></td></tr><tr><td style="font-weight:bold;vertical-align:top;">wsgi_input</td><td style="vertical-align:top;">:</td><td><div>&lt;socket._fileobject object at 0x7f6cb61ce1d0&gt;</div></td></tr><tr><td style="font-weight:bold;vertical-align:top;">wsgi_multiprocess</td><td style="vertical-align:top;">:</td><td><div>False</div></td></tr><tr><td style="font-weight:bold;vertical-align:top;">wsgi_multithread</td><td style="vertical-align:top;">:</td><td><div>True</div></td></tr><tr><td style="font-weight:bold;vertical-align:top;">wsgi_run_once</td><td style="vertical-align:top;">:</td><td><div>False</div></td></tr><tr><td style="font-weight:bold;vertical-align:top;">wsgi_url_scheme</td><td style="vertical-align:top;">:</td><td><div>http</div></td></tr><tr><td style="font-weight:bold;vertical-align:top;">wsgi_version</td><td style="vertical-align:top;">:</td><td><div><table><tr><td><div>1</div></td></tr><tr><td><div>0</div></td></tr></table></div></td></tr></table></div></td></tr><tr><td style="font-weight:bold;vertical-align:top;">extension</td><td style="vertical-align:top;">:</td><td><div>json</div></td></tr><tr><td style="font-weight:bold;vertical-align:top;">folder</td><td style="vertical-align:top;">:</td><td><div>/home/user/Local Disk E/COP290/assignment2_1/GRS_Grievances_Resolution_System/web2py/applications/GRS/</div></td></tr><tr><td style="font-weight:bold;vertical-align:top;">function</td><td style="vertical-align:top;">:</td><td><div>comment</div></td></tr><tr><td style="font-weight:bold;vertical-align:top;">global_settings</td><td style="vertical-align:top;">:</td><td><div><table><tr><td style="font-weight:bold;vertical-align:top;">app_folders</td><td style="vertical-align:top;">:</td><td><div>set([&#x27;/home/user/Local Disk E/COP290/assignment2_1/GRS_Grievances_Resolution_System/web2py/applications/GRS/&#x27;, &#x27;/home/user/Local Disk E/COP290/assignment2_1/GRS_Grievances_Resolution_System/web2py/applications/welcome/&#x27;, &#x27;/home/user/Local Disk E/COP290/assignment2_1/GRS_Grievances_Resolution_System/web2py/applications/admin/&#x27;])</div></td></tr><tr><td style="font-weight:bold;vertical-align:top;">applications_parent</td><td style="vertical-align:top;">:</td><td><div>/home/user/Local Disk E/COP290/assignment2_1/GRS_Grievances_Resolution_System/web2py</div></td></tr><tr><td style="font-weight:bold;vertical-align:top;">cmd_args</td><td style="vertical-align:top;">:</td><td><div><table></table></div></td></tr><tr><td style="font-weight:bold;vertical-align:top;">cmd_options</td><td style="vertical-align:top;">:</td><td><div>&lt;Values at 0x7f6cf75c7908: {&#x27;verbose&#x27;: False, &#x27;ip&#x27;: &#x27;127.0.0.1&#x27;, &#x27;debuglevel&#x27;: 30, &#x27;with_scheduler&#x27;: False, &#x27;shutdown_timeout&#x27;: 5, &#x27;taskbar&#x27;: False, &#x27;with_coverage&#x27;: False, &#x27;pid_filename&#x27;: &#x27;httpserver.pid&#x27;, &#x27;maxthreads&#x27;: None, &#x27;softcron&#x27;: False, &#x27;server_name&#x27;: &#x27;user-Z5WAH&#x27;, &#x27;bpython&#x27;: False, &#x27;nogui&#x27;: False, &#x27;port&#x27;: 8000, &#x27;print_errors&#x27;: False, &#x27;extcron&#x27;: False, &#x27;runcron&#x27;: False, &#x27;run_system_tests&#x27;: False, &#x27;test&#x27;: None, &#x27;folder&#x27;: &#x27;/home/user/Local Disk E/COP290/assignment2_1/GRS_Grievances_Resolution_System/web2py&#x27;, &#x27;config&#x27;: &#x27;&#x27;, &#x27;minthreads&#x27;: None, &#x27;shell&#x27;: None, &#x27;run&#x27;: &#x27;&#x27;, &#x27;log_filename&#x27;: &#x27;httpserver.log&#x27;, &#x27;profiler_dir&#x27;: None, &#x27;args&#x27;: [&#x27;&#x27;], &#x27;socket_timeout&#x27;: 5, &#x27;ssl_ca_certificate&#x27;: None, &#x27;scheduler&#x27;: None, &#x27;interfaces&#x27;: None, &#x27;ssl_private_key&#x27;: &#x27;&#x27;, &#x27;gae&#x27;: None, &#x27;password&#x27;: &#x27;******&#x27;, &#x27;request_queue_size&#x27;: 5, &#x27;ssl_certificate&#x27;: &#x27;&#x27;, &#x27;cronjob&#x27;: False, &#x27;numthreads&#x27;: None, &#x27;quiet&#x27;: False, &#x27;import_models&#x27;: False, &#x27;timeout&#x27;: 10, &#x27;plain&#x27;: False, &#x27;nobanner&#x27;: False}&gt;</div></td></tr><tr><td style="font-weight:bold;vertical-align:top;">db_sessions</td><td style="vertical-align:top;">:</td><td><div>set([])</div></td></tr><tr><td style="font-weight:bold;vertical-align:top;">debugging</td><td style="vertical-align:top;">:</td><td><div>False</div></td></tr><tr><td style="font-weight:bold;vertical-align:top;">gluon_parent</td><td style="vertical-align:top;">:</td><td><div>/home/user/Local Disk E/COP290/assignment2_1/GRS_Grievances_Resolution_System/web2py</div></td></tr><tr><td style="font-weight:bold;vertical-align:top;">is_jython</td><td style="vertical-align:top;">:</td><td><div>False</div></td></tr><tr><td style="font-weight:bold;vertical-align:top;">is_pypy</td><td style="vertical-align:top;">:</td><td><div>False</div></td></tr><tr><td style="font-weight:bold;vertical-align:top;">is_source</td><td style="vertical-align:top;">:</td><td><div>True</div></td></tr><tr><td style="font-weight:bold;vertical-align:top;">local_hosts</td><td style="vertical-align:top;">:</td><td><div><table><tr><td><div>user-Z5WAH</div></td></tr><tr><td><div>::1</div></td></tr><tr><td><div>127.0.1.1</div></td></tr><tr><td><div>::ffff:127.0.0.1</div></td></tr><tr><td><div>127.0.0.1</div></td></tr></table></div></td></tr><tr><td style="font-weight:bold;vertical-align:top;">web2py_version</td><td style="vertical-align:top;">:</td><td><div>2.14.2-stable+timestamp.2016.03.24.22.47.49</div></td></tr></table></div></td></tr><tr><td style="font-weight:bold;vertical-align:top;">is_https</td><td style="vertical-align:top;">:</td><td><div>False</div></td></tr><tr><td style="font-weight:bold;vertical-align:top;">is_local</td><td style="vertical-align:top;">:</td><td><div>True</div></td></tr><tr><td style="font-weight:bold;vertical-align:top;">is_restful</td><td style="vertical-align:top;">:</td><td><div>True</div></td></tr><tr><td style="font-weight:bold;vertical-align:top;">is_scheduler</td><td style="vertical-align:top;">:</td><td><div>False</div></td></tr><tr><td style="font-weight:bold;vertical-align:top;">is_shell</td><td style="vertical-align:top;">:</td><td><div>False</div></td></tr><tr><td style="font-weight:bold;vertical-align:top;">now</td><td style="vertical-align:top;">:</td><td><div>datetime.datetime(2016, 3, 29, 12, 49, 27, 538794)</div></td></tr><tr><td style="font-weight:bold;vertical-align:top;">raw_args</td><td style="vertical-align:top;">:</td><td><div></div></td></tr><tr><td style="font-weight:bold;vertical-align:top;">raw_extension</td><td style="vertical-align:top;">:</td><td><div>json</div></td></tr><tr><td style="font-weight:bold;vertical-align:top;">url</td><td style="vertical-align:top;">:</td><td><div>/GRS/complaint/comment.json</div></td></tr><tr><td style="font-weight:bold;vertical-align:top;">utcnow</td><td style="vertical-align:top;">:</td><td><div>datetime.datetime(2016, 3, 29, 7, 19, 27, 538811)</div></td></tr><tr><td style="font-weight:bold;vertical-align:top;">wsgi</td><td style="vertical-align:top;">:</td><td><div>&lt;gluon.main.LazyWSGI object at 0x7f6cf05288d0&gt;</div></td></tr></table></div>'
tRp57
sS'frames'
p58
(lp59
(dp60
S'file'
p61
S'/home/user/Local Disk E/COP290/assignment2_1/GRS_Grievances_Resolution_System/web2py/gluon/restricted.py'
p62
sS'dump'
p63
(dp64
S'environment'
p65
S"{'A': <class 'gluon.html.A'>, 'ANY_OF': <class 'gluon.validators.ANY_OF'>, 'ASSIGNJS': <function ASSIGNJS>, 'AppConfig': <function AppConfig>, 'Auth': <class 'gluon.tools.Auth'>, 'B': <class 'gluon.html.B'>, 'BEAUTIFY': <class 'gluon.html.BEAUTIFY'>, 'BODY': <class 'gluon.html.BODY'>, 'BR': <class 'gluon.html.BR'>, 'BUTTON': <class 'gluon.html.BUTTON'>, ...}"
p66
sS'ccode'
p67
S'<code object <module> at 0x7f6cf03b5bb0, file "/...plications/GRS/controllers/complaint.py", line 1>'
p68
ssS'lnum'
p69
I227
sS'lines'
p70
(dp71
I224
S'            ccode = code'
p72
sI225
S'        else:'
p73
sI226
S'            ccode = compile2(code, layer)'
p74
sI227
S'        exec ccode in environment'
p75
sI228
S'    except HTTP:'
p76
sI229
S'        raise'
p77
sI230
S'    except RestrictedError:'
p78
sI231
S'        # do not encapsulate (obfuscate) the original RestrictedError'
p79
sI222
S'    try:'
p80
sI223
S'        if isinstance(code, types.CodeType):'
p81
ssS'call'
p82
S"(code='@request.restful()\\ndef details():\\n\\tresponse.view...ls()\\n\\n\\n\\nresponse._vars=response._caller(comment)\\n', environment={'A': <class 'gluon.html.A'>, 'ANY_OF': <class 'gluon.validators.ANY_OF'>, 'ASSIGNJS': <function ASSIGNJS>, 'AppConfig': <function AppConfig>, 'Auth': <class 'gluon.tools.Auth'>, 'B': <class 'gluon.html.B'>, 'BEAUTIFY': <class 'gluon.html.BEAUTIFY'>, 'BODY': <class 'gluon.html.BODY'>, 'BR': <class 'gluon.html.BR'>, 'BUTTON': <class 'gluon.html.BUTTON'>, ...}, layer='/home/user/Local Disk E/COP290/assignment2_1/GRS.../web2py/applications/GRS/controllers/complaint.py')"
p83
sS'func'
p84
S'restricted'
p85
sa(dp86
g61
S'/home/user/Local Disk E/COP290/assignment2_1/GRS_Grievances_Resolution_System/web2py/applications/GRS/controllers/complaint.py'
p87
sg63
(dp88
sg69
I369
sg70
(dp89
I358
S'\t\tret_cmnt.update(user_id=auth.user.id)'
p90
sI359
S'\t\tret_cmnt.delete()'
p91
sI360
S''
sI361
S'\t\tbook_usrs = db(db.bookmarks.complaint_id==request.vars.complaint_id).select()'
p92
sI362
S'\t\tfor index in range(len(book_usrs)):'
p93
sI363
S'\t\t\tnotif = db.notifications.insert(user_id=book_usrs[index].user_id,notification_type=0,notification_item_id=ret_cmnt)'
p94
sI364
S'\t\treturn ret_cmnt'
p95
sI365
S'\treturn locals()'
p96
sI366
S''
sI367
S''
ssg82
S'()'
p97
sg84
S'<module>'
p98
sa(dp99
g61
S'/home/user/Local Disk E/COP290/assignment2_1/GRS_Grievances_Resolution_System/web2py/gluon/globals.py'
p100
sg63
(dp101
S'self'
p102
S'undefined'
p103
sS'f'
S'<function comment>'
p104
ssg69
I417
sg70
(dp105
I416
S'        self._vars = None'
p106
sI417
S'        self._caller = lambda f: f()'
p107
sI418
S'        self._view_environment = None'
p108
sI419
S'        self._custom_commit = None'
p109
sI420
S'        self._custom_rollback = None'
p110
sI421
S"        self.generic_patterns = ['*']"
p111
sI412
S"        self.flash = ''            # used by the default view layout"
p112
sI413
S'        self.meta = Storage()      # used by web2py_ajax.html'
p113
sI414
S'        self.menu = []             # used by the default view layout'
p114
sI415
S'        self.files = []            # used by web2py_ajax.html'
p115
ssg82
S'(f=<function comment>)'
p116
sg84
S'<lambda>'
p117
sa(dp118
g61
S'/home/user/Local Disk E/COP290/assignment2_1/GRS_Grievances_Resolution_System/web2py/gluon/globals.py'
p119
sg63
(dp120
S'rest_action'
p121
S'<function GET>'
p122
sS'res'
p123
g103
sS'request.args'
p124
S'[]'
p125
sS'request'
p126
S"<Storage {'_vars': <Storage {'complaint_id': '40...ces_Resolution_System/web2py/applications/GRS/'}>"
p127
sS'request.vars'
p128
S"<Storage {'complaint_id': '40', 'comment_made': 'many_to_go'}>"
p129
ssg69
I380
sg70
(dp130
I384
S'                except TypeError, e:'
p131
sI375
S'                rest_action = _action().get(method, None)'
p132
sI376
S'                if not (rest_action and method == method.upper()'
p133
sI377
S'                        and callable(rest_action)):'
p134
sI378
S'                    raise HTTP(405, "method not allowed")'
p135
sI379
S'                try:'
p136
sI380
S'                    res = rest_action(*request.args, **request.vars)'
p137
sI381
S'                    if is_json and not isinstance(res, str):'
p138
sI382
S'                        res = json(res)'
p139
sI383
S'                    return res'
p140
ssg82
S'(_action=<function comment>, *a=(), **b={})'
p141
sg84
S'f'
sa(dp142
g61
S'/home/user/Local Disk E/COP290/assignment2_1/GRS_Grievances_Resolution_System/web2py/applications/GRS/controllers/complaint.py'
p143
sg63
(dp144
S'ret_cmnt'
p145
S"<Row {'errors': {}, 'user_id': 18L, 'id': 8L}>"
p146
sS'ret_cmnt.delete'
p147
g103
ssg69
I359
sg70
(dp148
I354
S'\t\t\treturn dict()'
p149
sI355
S'\t\tret_cmnt = db[db.comments].validate_and_insert(**follow_input)'
p150
sI356
S''
sI357
S"#\t\tdb.executesql('UPDATE comments SET user_id='+str(auth.user.id)+' WHERE id='+str(ret_cmnt.id)+';')"
p151
sI358
S'\t\tret_cmnt.update(user_id=auth.user.id)'
p152
sI359
S'\t\tret_cmnt.delete()'
p153
sI360
S''
sI361
S'\t\tbook_usrs = db(db.bookmarks.complaint_id==request.vars.complaint_id).select()'
p154
sI362
S'\t\tfor index in range(len(book_usrs)):'
p155
sI363
S'\t\t\tnotif = db.notifications.insert(user_id=book_usrs[index].user_id,notification_type=0,notification_item_id=ret_cmnt)'
p156
ssg82
S"(*tmp_args=(), **follow_input={'comment_made': 'many_to_go', 'complaint_id': '40'})"
p157
sg84
S'GET'
p158
sa(dp159
g61
S'/home/user/Local Disk E/COP290/assignment2_1/GRS_Grievances_Resolution_System/web2py/gluon/packages/dal/pydal/objects.py'
p160
sg63
(dp161
S'builtinAttributeError'
p162
S"<type 'exceptions.AttributeError'>"
p163
ssg69
I90
sg70
(dp164
I85
S''
sI86
S'    def __getattr__(self, k):'
p165
sI87
S'        try:'
p166
sI88
S'            return self.__getitem__(k)'
p167
sI89
S'        except KeyError:'
p168
sI90
S'            raise AttributeError'
p169
sI91
S''
sI92
S'    def __copy__(self):'
p170
sI93
S'        return Row(self)'
p171
sI94
S''
ssg82
S"(self=<Row {'errors': {}, 'user_id': 18L, 'id': 8L}>, k='delete')"
p172
sg84
S'__getattr__'
p173
sasS'pyver'
p174
S'Python 2.7.10: /usr/bin/python (prefix: /usr)'
p175
sS'session'
p176
g56
(S's\xf5\t\x00\x00<div><table><tr><td style="font-weight:bold;vertical-align:top;">auth</td><td style="vertical-align:top;">:</td><td><div><table><tr><td style="font-weight:bold;vertical-align:top;">expiration</td><td style="vertical-align:top;">:</td><td><div>3600</div></td></tr><tr><td style="font-weight:bold;vertical-align:top;">hmac_key</td><td style="vertical-align:top;">:</td><td><div>e92df0fc-5584-42c3-b27c-442e873b85c6</div></td></tr><tr><td style="font-weight:bold;vertical-align:top;">last_visit</td><td style="vertical-align:top;">:</td><td><div>datetime.datetime(2016, 3, 29, 12, 48, 38, 476350)</div></td></tr><tr><td style="font-weight:bold;vertical-align:top;">user</td><td style="vertical-align:top;">:</td><td><div><table><tr><td style="font-weight:bold;vertical-align:top;">degree_name</td><td style="vertical-align:top;">:</td><td><div>None</div></td></tr><tr><td style="font-weight:bold;vertical-align:top;">email_id</td><td style="vertical-align:top;">:</td><td><div>None</div></td></tr><tr><td style="font-weight:bold;vertical-align:top;">first_name</td><td style="vertical-align:top;">:</td><td><div>student</div></td></tr><tr><td style="font-weight:bold;vertical-align:top;">hostel_id</td><td style="vertical-align:top;">:</td><td><div>53L</div></td></tr><tr><td style="font-weight:bold;vertical-align:top;">id</td><td style="vertical-align:top;">:</td><td><div>18L</div></td></tr><tr><td style="font-weight:bold;vertical-align:top;">last_name</td><td style="vertical-align:top;">:</td><td><div>1</div></td></tr><tr><td style="font-weight:bold;vertical-align:top;">picture_id</td><td style="vertical-align:top;">:</td><td><div>None</div></td></tr><tr><td style="font-weight:bold;vertical-align:top;">registration_id</td><td style="vertical-align:top;">:</td><td><div>None</div></td></tr><tr><td style="font-weight:bold;vertical-align:top;">registration_key</td><td style="vertical-align:top;">:</td><td><div>None</div></td></tr><tr><td style="font-weight:bold;vertical-align:top;">username</td><td style="vertical-align:top;">:</td><td><div>std1</div></td></tr><tr><td style="font-weight:bold;vertical-align:top;">year_of_degree</td><td style="vertical-align:top;">:</td><td><div>None</div></td></tr></table></div></td></tr><tr><td style="font-weight:bold;vertical-align:top;">user_groups</td><td style="vertical-align:top;">:</td><td><div><table></table></div></td></tr></table></div></td></tr><tr><td style="font-weight:bold;vertical-align:top;">flash</td><td style="vertical-align:top;">:</td><td><div>None</div></td></tr></table></div>'
tRp177
sS'etype'
p178
S"<type 'exceptions.AttributeError'>"
p179
sS'date'
p180
S'Tue Mar 29 12:49:27 2016'
p181
sS'response'
p182
g56
(S's\xd1?\x00\x00<div><table><tr><td style="font-weight:bold;vertical-align:top;">body</td><td style="vertical-align:top;">:</td><td><div>&lt;cStringIO.StringO object at 0x7f6cf05a9b58&gt;</div></td></tr><tr><td style="font-weight:bold;vertical-align:top;">cookies</td><td style="vertical-align:top;">:</td><td><div><table><tr><td style="font-weight:bold;vertical-align:top;">session_id_grs</td><td style="vertical-align:top;">:</td><td><div>127.0.0.1-34d6d6b5-e2a5-4d90-b44a-9640cb58e2f7<table><tr><td style="font-weight:bold;vertical-align:top;">comment</td><td style="vertical-align:top;">:</td><td><div></div></td></tr><tr><td style="font-weight:bold;vertical-align:top;">domain</td><td style="vertical-align:top;">:</td><td><div></div></td></tr><tr><td style="font-weight:bold;vertical-align:top;">expires</td><td style="vertical-align:top;">:</td><td><div></div></td></tr><tr><td style="font-weight:bold;vertical-align:top;">httponly</td><td style="vertical-align:top;">:</td><td><div></div></td></tr><tr><td style="font-weight:bold;vertical-align:top;">max-age</td><td style="vertical-align:top;">:</td><td><div></div></td></tr><tr><td style="font-weight:bold;vertical-align:top;">path</td><td style="vertical-align:top;">:</td><td><div>/</div></td></tr><tr><td style="font-weight:bold;vertical-align:top;">secure</td><td style="vertical-align:top;">:</td><td><div></div></td></tr><tr><td style="font-weight:bold;vertical-align:top;">version</td><td style="vertical-align:top;">:</td><td><div></div></td></tr></table></div></td></tr></table></div></td></tr><tr><td style="font-weight:bold;vertical-align:top;">delimiters</td><td style="vertical-align:top;">:</td><td><div><table><tr><td><div>{{</div></td></tr><tr><td><div>}}</div></td></tr></table></div></td></tr><tr><td style="font-weight:bold;vertical-align:top;">files</td><td style="vertical-align:top;">:</td><td><div><table></table></div></td></tr><tr><td style="font-weight:bold;vertical-align:top;">flash</td><td style="vertical-align:top;">:</td><td><div></div></td></tr><tr><td style="font-weight:bold;vertical-align:top;">form_label_separator</td><td style="vertical-align:top;">:</td><td><div></div></td></tr><tr><td style="font-weight:bold;vertical-align:top;">formstyle</td><td style="vertical-align:top;">:</td><td><div>bootstrap3_inline</div></td></tr><tr><td style="font-weight:bold;vertical-align:top;">generic_patterns</td><td style="vertical-align:top;">:</td><td><div><table><tr><td><div>*</div></td></tr></table></div></td></tr><tr><td style="font-weight:bold;vertical-align:top;">google_analytics_id</td><td style="vertical-align:top;">:</td><td><div>None</div></td></tr><tr><td style="font-weight:bold;vertical-align:top;">headers</td><td style="vertical-align:top;">:</td><td><div><table><tr><td style="font-weight:bold;vertical-align:top;">X-Powered-By</td><td style="vertical-align:top;">:</td><td><div>web2py</div></td></tr></table></div></td></tr><tr><td style="font-weight:bold;vertical-align:top;">logo</td><td style="vertical-align:top;">:</td><td><div><a class="navbar-brand" href="http://www.web2py.com/" id="web2py-logo"><b>web<span>2</span>py</b>&trade;&nbsp;</a></div></td></tr><tr><td style="font-weight:bold;vertical-align:top;">menu</td><td style="vertical-align:top;">:</td><td><div><table><tr><td><div><table><tr><td><div>Home</div></td></tr><tr><td><div>False</div></td></tr><tr><td><div>/GRS/default/index.json</div></td></tr><tr><td><div><table></table></div></td></tr></table></div></td></tr><tr><td><div><table><tr><td><div>My Sites</div></td></tr><tr><td><div>False</div></td></tr><tr><td><div>/admin/default/site.json</div></td></tr></table></div></td></tr><tr><td><div><table><tr><td><div>This App</div></td></tr><tr><td><div>False</div></td></tr><tr><td><div>#</div></td></tr><tr><td><div><table><tr><td><div><table><tr><td><div>Design</div></td></tr><tr><td><div>False</div></td></tr><tr><td><div>/admin/default/design.json/GRS</div></td></tr></table></div></td></tr><tr><td><div><li class="divider"></li></div></td></tr><tr><td><div><table><tr><td><div>Controller</div></td></tr><tr><td><div>False</div></td></tr><tr><td><div>/admin/default/edit.json/GRS/controllers/complaint.py</div></td></tr></table></div></td></tr><tr><td><div><table><tr><td><div>View</div></td></tr><tr><td><div>False</div></td></tr><tr><td><div>/admin/default/edit.json/GRS/views/complaint/comment.json</div></td></tr></table></div></td></tr><tr><td><div><table><tr><td><div>DB Model</div></td></tr><tr><td><div>False</div></td></tr><tr><td><div>/admin/default/edit.json/GRS/models/db.py</div></td></tr></table></div></td></tr><tr><td><div><table><tr><td><div>Menu Model</div></td></tr><tr><td><div>False</div></td></tr><tr><td><div>/admin/default/edit.json/GRS/models/menu.py</div></td></tr></table></div></td></tr><tr><td><div><table><tr><td><div>Config.ini</div></td></tr><tr><td><div>False</div></td></tr><tr><td><div>/admin/default/edit.json/GRS/private/appconfig.ini</div></td></tr></table></div></td></tr><tr><td><div><table><tr><td><div>Layout</div></td></tr><tr><td><div>False</div></td></tr><tr><td><div>/admin/default/edit.json/GRS/views/layout.html</div></td></tr></table></div></td></tr><tr><td><div><table><tr><td><div>Stylesheet</div></td></tr><tr><td><div>False</div></td></tr><tr><td><div>/admin/default/edit.json/GRS/static/css/web2py-bootstrap3.css</div></td></tr></table></div></td></tr><tr><td><div><table><tr><td><div>Database</div></td></tr><tr><td><div>False</div></td></tr><tr><td><div>/GRS/appadmin/index.json</div></td></tr></table></div></td></tr><tr><td><div><table><tr><td><div>Errors</div></td></tr><tr><td><div>False</div></td></tr><tr><td><div>/admin/default/errors.json/GRS</div></td></tr></table></div></td></tr><tr><td><div><table><tr><td><div>About</div></td></tr><tr><td><div>False</div></td></tr><tr><td><div>/admin/default/about.json/GRS</div></td></tr></table></div></td></tr></table></div></td></tr></table></div></td></tr><tr><td><div><table><tr><td><div>web2py.com</div></td></tr><tr><td><div>False</div></td></tr><tr><td><div>#</div></td></tr><tr><td><div><table><tr><td><div><table><tr><td><div>Download</div></td></tr><tr><td><div>False</div></td></tr><tr><td><div>http://www.web2py.com/examples/default/download</div></td></tr></table></div></td></tr><tr><td><div><table><tr><td><div>Support</div></td></tr><tr><td><div>False</div></td></tr><tr><td><div>http://www.web2py.com/examples/default/support</div></td></tr></table></div></td></tr><tr><td><div><table><tr><td><div>Demo</div></td></tr><tr><td><div>False</div></td></tr><tr><td><div>http://web2py.com/demo_admin</div></td></tr></table></div></td></tr><tr><td><div><table><tr><td><div>Quick Examples</div></td></tr><tr><td><div>False</div></td></tr><tr><td><div>http://web2py.com/examples/default/examples</div></td></tr></table></div></td></tr><tr><td><div><table><tr><td><div>FAQ</div></td></tr><tr><td><div>False</div></td></tr><tr><td><div>http://web2py.com/AlterEgo</div></td></tr></table></div></td></tr><tr><td><div><table><tr><td><div>Videos</div></td></tr><tr><td><div>False</div></td></tr><tr><td><div>http://www.web2py.com/examples/default/videos/</div></td></tr></table></div></td></tr><tr><td><div><table><tr><td><div>Free Applications</div></td></tr><tr><td><div>False</div></td></tr><tr><td><div>http://web2py.com/appliances</div></td></tr></table></div></td></tr><tr><td><div><table><tr><td><div>Plugins</div></td></tr><tr><td><div>False</div></td></tr><tr><td><div>http://web2py.com/plugins</div></td></tr></table></div></td></tr><tr><td><div><table><tr><td><div>Recipes</div></td></tr><tr><td><div>False</div></td></tr><tr><td><div>http://web2pyslices.com/</div></td></tr></table></div></td></tr></table></div></td></tr></table></div></td></tr><tr><td><div><table><tr><td><div>Documentation</div></td></tr><tr><td><div>False</div></td></tr><tr><td><div>#</div></td></tr><tr><td><div><table><tr><td><div><table><tr><td><div>Online book</div></td></tr><tr><td><div>False</div></td></tr><tr><td><div>http://www.web2py.com/book</div></td></tr></table></div></td></tr><tr><td><div><li class="divider"></li></div></td></tr><tr><td><div><table><tr><td><div>Preface</div></td></tr><tr><td><div>False</div></td></tr><tr><td><div>http://www.web2py.com/book/default/chapter/00</div></td></tr></table></div></td></tr><tr><td><div><table><tr><td><div>Introduction</div></td></tr><tr><td><div>False</div></td></tr><tr><td><div>http://www.web2py.com/book/default/chapter/01</div></td></tr></table></div></td></tr><tr><td><div><table><tr><td><div>Python</div></td></tr><tr><td><div>False</div></td></tr><tr><td><div>http://www.web2py.com/book/default/chapter/02</div></td></tr></table></div></td></tr><tr><td><div><table><tr><td><div>Overview</div></td></tr><tr><td><div>False</div></td></tr><tr><td><div>http://www.web2py.com/book/default/chapter/03</div></td></tr></table></div></td></tr><tr><td><div><table><tr><td><div>The Core</div></td></tr><tr><td><div>False</div></td></tr><tr><td><div>http://www.web2py.com/book/default/chapter/04</div></td></tr></table></div></td></tr><tr><td><div><table><tr><td><div>The Views</div></td></tr><tr><td><div>False</div></td></tr><tr><td><div>http://www.web2py.com/book/default/chapter/05</div></td></tr></table></div></td></tr><tr><td><div><table><tr><td><div>Database</div></td></tr><tr><td><div>False</div></td></tr><tr><td><div>http://www.web2py.com/book/default/chapter/06</div></td></tr></table></div></td></tr><tr><td><div><table><tr><td><div>Forms and Validators</div></td></tr><tr><td><div>False</div></td></tr><tr><td><div>http://www.web2py.com/book/default/chapter/07</div></td></tr></table></div></td></tr><tr><td><div><table><tr><td><div>Email and SMS</div></td></tr><tr><td><div>False</div></td></tr><tr><td><div>http://www.web2py.com/book/default/chapter/08</div></td></tr></table></div></td></tr><tr><td><div><table><tr><td><div>Access Control</div></td></tr><tr><td><div>False</div></td></tr><tr><td><div>http://www.web2py.com/book/default/chapter/09</div></td></tr></table></div></td></tr><tr><td><div><table><tr><td><div>Services</div></td></tr><tr><td><div>False</div></td></tr><tr><td><div>http://www.web2py.com/book/default/chapter/10</div></td></tr></table></div></td></tr><tr><td><div><table><tr><td><div>Ajax Recipes</div></td></tr><tr><td><div>False</div></td></tr><tr><td><div>http://www.web2py.com/book/default/chapter/11</div></td></tr></table></div></td></tr><tr><td><div><table><tr><td><div>Components and Plugins</div></td></tr><tr><td><div>False</div></td></tr><tr><td><div>http://www.web2py.com/book/default/chapter/12</div></td></tr></table></div></td></tr><tr><td><div><table><tr><td><div>Deployment Recipes</div></td></tr><tr><td><div>False</div></td></tr><tr><td><div>http://www.web2py.com/book/default/chapter/13</div></td></tr></table></div></td></tr><tr><td><div><table><tr><td><div>Other Recipes</div></td></tr><tr><td><div>False</div></td></tr><tr><td><div>http://www.web2py.com/book/default/chapter/14</div></td></tr></table></div></td></tr><tr><td><div><table><tr><td><div>Helping web2py</div></td></tr><tr><td><div>False</div></td></tr><tr><td><div>http://www.web2py.com/book/default/chapter/15</div></td></tr></table></div></td></tr><tr><td><div><table><tr><td><div>Buy web2py\'s book</div></td></tr><tr><td><div>False</div></td></tr><tr><td><div>http://stores.lulu.com/web2py</div></td></tr></table></div></td></tr></table></div></td></tr></table></div></td></tr><tr><td><div><table><tr><td><div>Community</div></td></tr><tr><td><div>False</div></td></tr><tr><td><div>None</div></td></tr><tr><td><div><table><tr><td><div><table><tr><td><div>Groups</div></td></tr><tr><td><div>False</div></td></tr><tr><td><div>http://www.web2py.com/examples/default/usergroups</div></td></tr></table></div></td></tr><tr><td><div><table><tr><td><div>Twitter</div></td></tr><tr><td><div>False</div></td></tr><tr><td><div>http://twitter.com/web2py</div></td></tr></table></div></td></tr><tr><td><div><table><tr><td><div>Live Chat</div></td></tr><tr><td><div>False</div></td></tr><tr><td><div>http://webchat.freenode.net/?channels=web2py</div></td></tr></table></div></td></tr></table></div></td></tr></table></div></td></tr></table></div></td></tr><tr><td style="font-weight:bold;vertical-align:top;">meta</td><td style="vertical-align:top;">:</td><td><div><table><tr><td style="font-weight:bold;vertical-align:top;">author</td><td style="vertical-align:top;">:</td><td><div>Your Name &lt;you@example.com&gt;</div></td></tr><tr><td style="font-weight:bold;vertical-align:top;">description</td><td style="vertical-align:top;">:</td><td><div>a cool new app</div></td></tr><tr><td style="font-weight:bold;vertical-align:top;">generator</td><td style="vertical-align:top;">:</td><td><div>Web2py Web Framework</div></td></tr><tr><td style="font-weight:bold;vertical-align:top;">keywords</td><td style="vertical-align:top;">:</td><td><div><table><tr><td><div>web2py</div></td></tr><tr><td><div>python</div></td></tr><tr><td><div>framework</div></td></tr></table></div></td></tr></table></div></td></tr><tr><td style="font-weight:bold;vertical-align:top;">models_to_run</td><td style="vertical-align:top;">:</td><td><div><table><tr><td><div>^\\w+\\.py$</div></td></tr><tr><td><div>^complaint/\\w+\\.py$</div></td></tr><tr><td><div>^complaint/comment/\\w+\\.py$</div></td></tr></table></div></td></tr><tr><td style="font-weight:bold;vertical-align:top;">postprocessing</td><td style="vertical-align:top;">:</td><td><div><table></table></div></td></tr><tr><td style="font-weight:bold;vertical-align:top;">session_client</td><td style="vertical-align:top;">:</td><td><div>127.0.0.1</div></td></tr><tr><td style="font-weight:bold;vertical-align:top;">session_cookie_compression_level</td><td style="vertical-align:top;">:</td><td><div>None</div></td></tr><tr><td style="font-weight:bold;vertical-align:top;">session_cookie_expires</td><td style="vertical-align:top;">:</td><td><div>None</div></td></tr><tr><td style="font-weight:bold;vertical-align:top;">session_data_name</td><td style="vertical-align:top;">:</td><td><div>session_data_grs</div></td></tr><tr><td style="font-weight:bold;vertical-align:top;">session_file</td><td style="vertical-align:top;">:</td><td><div>&lt;open file &#x27;/home/user/Local Disk E/COP290/assignment2_1/GRS_Grievances_Resolution_System/web2py/applications/GRS/sessions/077/01b/127.0.0.1-34d6d6b5-e2a5-4d90-b44a-9640cb58e2f7&#x27;, mode &#x27;rb+&#x27; at 0x7f6cb61d2300&gt;</div></td></tr><tr><td style="font-weight:bold;vertical-align:top;">session_filename</td><td style="vertical-align:top;">:</td><td><div>/home/user/Local Disk E/COP290/assignment2_1/GRS_Grievances_Resolution_System/web2py/applications/GRS/sessions/127.0.0.1-34d6d6b5-e2a5-4d90-b44a-9640cb58e2f7</div></td></tr><tr><td style="font-weight:bold;vertical-align:top;">session_hash</td><td style="vertical-align:top;">:</td><td><div>81a8e90693b41307c6a9551d9e5b6616</div></td></tr><tr><td style="font-weight:bold;vertical-align:top;">session_id</td><td style="vertical-align:top;">:</td><td><div>127.0.0.1-34d6d6b5-e2a5-4d90-b44a-9640cb58e2f7</div></td></tr><tr><td style="font-weight:bold;vertical-align:top;">session_id_name</td><td style="vertical-align:top;">:</td><td><div>session_id_grs</div></td></tr><tr><td style="font-weight:bold;vertical-align:top;">session_locked</td><td style="vertical-align:top;">:</td><td><div>True</div></td></tr><tr><td style="font-weight:bold;vertical-align:top;">session_masterapp</td><td style="vertical-align:top;">:</td><td><div>GRS</div></td></tr><tr><td style="font-weight:bold;vertical-align:top;">session_new</td><td style="vertical-align:top;">:</td><td><div>False</div></td></tr><tr><td style="font-weight:bold;vertical-align:top;">session_storage_type</td><td style="vertical-align:top;">:</td><td><div>file</div></td></tr><tr><td style="font-weight:bold;vertical-align:top;">status</td><td style="vertical-align:top;">:</td><td><div>200</div></td></tr><tr><td style="font-weight:bold;vertical-align:top;">subtitle</td><td style="vertical-align:top;">:</td><td><div></div></td></tr><tr><td style="font-weight:bold;vertical-align:top;">title</td><td style="vertical-align:top;">:</td><td><div>Grs</div></td></tr><tr><td style="font-weight:bold;vertical-align:top;">view</td><td style="vertical-align:top;">:</td><td><div>generic.json</div></td></tr></table></div>'
tRp183
sS'locals'
p184
(dp185
S'k'
S"'delete'"
p186
sS'self'
p187
S"<Row {'errors': {}, 'user_id': 18L, 'id': 8L}>"
p188
sssS'traceback'
p189
S'Traceback (most recent call last):\n  File "/home/user/Local Disk E/COP290/assignment2_1/GRS_Grievances_Resolution_System/web2py/gluon/restricted.py", line 227, in restricted\n    exec ccode in environment\n  File "/home/user/Local Disk E/COP290/assignment2_1/GRS_Grievances_Resolution_System/web2py/applications/GRS/controllers/complaint.py", line 369, in <module>\n  File "/home/user/Local Disk E/COP290/assignment2_1/GRS_Grievances_Resolution_System/web2py/gluon/globals.py", line 417, in <lambda>\n    self._caller = lambda f: f()\n  File "/home/user/Local Disk E/COP290/assignment2_1/GRS_Grievances_Resolution_System/web2py/gluon/globals.py", line 380, in f\n    res = rest_action(*request.args, **request.vars)\n  File "/home/user/Local Disk E/COP290/assignment2_1/GRS_Grievances_Resolution_System/web2py/applications/GRS/controllers/complaint.py", line 359, in GET\n    ret_cmnt.delete()\n  File "/home/user/Local Disk E/COP290/assignment2_1/GRS_Grievances_Resolution_System/web2py/gluon/packages/dal/pydal/objects.py", line 90, in __getattr__\n    raise AttributeError\nAttributeError\n'
p190
s.