(dp1
S'output'
p2
S"<type 'exceptions.SyntaxError'> Field hostel_admin_group_id does not belong to the table"
p3
sS'layer'
p4
S'/home/user/Local Disk E/COP290/assignment2/GRS_Grievances_Resolution_System/web2py/applications/GRS/controllers/default.py'
p5
sS'code'
p6
S'# -*- coding: utf-8 -*-\n# this file is released under public domain and you can use without limitations\n\n#########################################################################\n## This is a sample controller\n## - index is the default action of any application\n## - user is required for authentication and authorization\n## - download is for downloading files uploaded in the db (does streaming)\n#########################################################################\n\ndef index():\n    """\n    example action using the internationalization operator T and flash\n    rendered by views/default/index.html or views/generic.html\n\n    if you need a simple wiki simply replace the two lines below with:\n    return auth.wiki()\n    """\n    response.flash = T("Hello World")\n    return dict(message=T(\'Welcome to web2py!\'))\n\n\ndef user():\n    """\n    exposes:\n    http://..../[app]/default/user/login\n    http://..../[app]/default/user/logout\n    http://..../[app]/default/user/register\n    http://..../[app]/default/user/profile\n    http://..../[app]/default/user/retrieve_password\n    http://..../[app]/default/user/change_password\n    http://..../[app]/default/user/bulk_register\n    use @auth.requires_login()\n        @auth.requires_membership(\'group name\')\n        @auth.requires_permission(\'read\',\'table name\',record_id)\n    to decorate functions that need access control\n    also notice there is http://..../[app]/appadmin/manage/auth to allow administrator to manage users\n    """\n    return dict(form=auth())\n\n\n@cache.action()\ndef download():\n    """\n    allows downloading of uploaded files\n    http://..../[app]/default/download/[filename]\n    """\n    return response.download(request, db)\n\n\ndef call():\n    """\n    exposes services. for example:\n    http://..../[app]/default/call/jsonrpc\n    decorate with @services.jsonrpc the functions to expose\n    supports xml, json, xmlrpc, jsonrpc, amfrpc, rss, csv\n    """\n    return service()\n\ndef clear_all():\n\tfor table in db.tables():\n\t\ttry:\n\t\t\tdb(db[table].id>0).delete()\n\t\t\tprint "Cleared",table\n\t\texcept Exception, e:\n\t\t\tprint "Couldn\'t clear",table\n\ndef complaint_levels_set():\n\tdb.complaint_levels.insert(\n\t\tcomplaint_level_name="Individual",\n\t)\n\n\tdb.complaint_levels.insert(\n\t\tcomplaint_level_name="Hostel",\n\t)\n\n\tdb.complaint_levels.insert(\n\t\tcomplaint_level_name="Institute",\n\t)\n\n\tdb.complaint_levels.insert(\n\t\tcomplaint_level_name="Miscellaneous",\n\t)\n\ndef institute_complaint_domain_set():\n\tdb.complaint_domain.insert(\n\t\tcomplaint_domain_name="Infrastructure",\n\t\tcomplaint_level_id=db.complaint_levels(complaint_level_name=\'Institute\'),\n\t)\n\n\tdb.complaint_domain.insert(\n\t\tcomplaint_domain_name="Administration",\n\t\tcomplaint_level_id=db.complaint_levels(complaint_level_name=\'Institute\'),\n\t)\n\n\tdb.complaint_domain.insert(\n\t\tcomplaint_domain_name="Canteen and Food Outlets",\n\t\tcomplaint_level_id=db.complaint_levels(complaint_level_name=\'Institute\'),\n\t)\n\n\tdb.complaint_domain.insert(\n\t\tcomplaint_domain_name="Security",\n\t\tcomplaint_level_id=db.complaint_levels(complaint_level_name=\'Institute\'),\n\t)\n\n\tdb.complaint_domain.insert(\n\t\tcomplaint_domain_name="Sports",\n\t\tcomplaint_level_id=db.complaint_levels(complaint_level_name=\'Institute\'),\n\t)\n\n\tdb.complaint_domain.insert(\n\t\tcomplaint_domain_name="Culture",\n\t\tcomplaint_level_id=db.complaint_levels(complaint_level_name=\'Institute\'),\n\t)\n\n\tdb.complaint_domain.insert(\n\t\tcomplaint_domain_name="Academics",\n\t\tcomplaint_level_id=db.complaint_levels(complaint_level_name=\'Institute\'),\n\t)\n\n\tdb.complaint_domain.insert(\n\t\tcomplaint_domain_name="Computer Services Centre",\n\t\tcomplaint_level_id=db.complaint_levels(complaint_level_name=\'Institute\'),\n\t)\n\n\tdb.complaint_domain.insert(\n\t\tcomplaint_domain_name="Maintenance",\n\t\tcomplaint_level_id=db.complaint_levels(complaint_level_name=\'Institute\'),\n\t)\n\n\tdb.complaint_domain.insert(\n\t\tcomplaint_domain_name="Miscellaneous",\n\t\tcomplaint_level_id=db.complaint_levels(complaint_level_name=\'Institute\'),\n\t)\n\ndef hostel_complaint_domain_set():\n\tdb.complaint_domain.insert(\n\t\tcomplaint_domain_name="Infrastructure",\n\t\tcomplaint_level_id=db.complaint_levels(complaint_level_name=\'Hostel\'),\n\t)\n\n\tdb.complaint_domain.insert(\n\t\tcomplaint_domain_name="Mess",\n\t\tcomplaint_level_id=db.complaint_levels(complaint_level_name=\'Hostel\'),\n\t)\n\n\tdb.complaint_domain.insert(\n\t\tcomplaint_domain_name="Administration",\n\t\tcomplaint_level_id=db.complaint_levels(complaint_level_name=\'Hostel\'),\n\t)\n\n\tdb.complaint_domain.insert(\n\t\tcomplaint_domain_name="Security",\n\t\tcomplaint_level_id=db.complaint_levels(complaint_level_name=\'Hostel\'),\n\t)\n\n\tdb.complaint_domain.insert(\n\t\tcomplaint_domain_name="Sports",\n\t\tcomplaint_level_id=db.complaint_levels(complaint_level_name=\'Hostel\'),\n\t)\n\n\tdb.complaint_domain.insert(\n\t\tcomplaint_domain_name="Maintenance",\n\t\tcomplaint_level_id=db.complaint_levels(complaint_level_name=\'Hostel\'),\n\t)\n\n\tdb.complaint_domain.insert(\n\t\tcomplaint_domain_name="Miscellaneous",\n\t\tcomplaint_level_id=db.complaint_levels(complaint_level_name=\'Hostel\'),\n\t)\n\ndef individual_complaint_domain_set():\n\tdb.complaint_domain.insert(\n\t\tcomplaint_domain_name="Electricity",\n\t\tcomplaint_level_id=db.complaint_levels(complaint_level_name=\'Individual\'),\n\t)\n\n\tdb.complaint_domain.insert(\n\t\tcomplaint_domain_name="Plumbing",\n\t\tcomplaint_level_id=db.complaint_levels(complaint_level_name=\'Individual\'),\n\t)\n\n\tdb.complaint_domain.insert(\n\t\tcomplaint_domain_name="Carpentry",\n\t\tcomplaint_level_id=db.complaint_levels(complaint_level_name=\'Individual\'),\n\t)\n\n\tdb.complaint_domain.insert(\n\t\tcomplaint_domain_name="UG Section",\n\t\tcomplaint_level_id=db.complaint_levels(complaint_level_name=\'Individual\'),\n\t)\n\n\tdb.complaint_domain.insert(\n\t\tcomplaint_domain_name="PG Section",\n\t\tcomplaint_level_id=db.complaint_levels(complaint_level_name=\'Individual\'),\n\t)\n\n\tdb.complaint_domain.insert(\n\t\tcomplaint_domain_name="Accounts Section",\n\t\tcomplaint_level_id=db.complaint_levels(complaint_level_name=\'Individual\'),\n\t)\n\n\tdb.complaint_domain.insert(\n\t\tcomplaint_domain_name="Students Counselling Service",\n\t\tcomplaint_level_id=db.complaint_levels(complaint_level_name=\'Individual\'),\n\t)\n\n\tdb.complaint_domain.insert(\n\t\tcomplaint_domain_name="Ragging",\n\t\tcomplaint_level_id=db.complaint_levels(complaint_level_name=\'Individual\'),\n\t)\n\n\tdb.complaint_domain.insert(\n\t\tcomplaint_domain_name="Hostel Administration",\n\t\tcomplaint_level_id=db.complaint_levels(complaint_level_name=\'Individual\'),\n\t)\n\n\tdb.complaint_domain.insert(\n\t\tcomplaint_domain_name="Security",\n\t\tcomplaint_level_id=db.complaint_levels(complaint_level_name=\'Individual\'),\n\t)\n\n\tdb.complaint_domain.insert(\n\t\tcomplaint_domain_name="Miscellaneous",\n\t\tcomplaint_level_id=db.complaint_levels(complaint_level_name=\'Individual\'),\n\t)\n\ndef group_names_set():\n\tdb.user_group_names.insert(\n\t\tgroup_name="Institute",\n\t)\n\n\tdb.user_group_names.insert(\n\t\tgroup_name="Institute Administration",\n\t)\n\n\tdb.user_group_names.insert(\n\t\tgroup_name="UG Section",\n\t)\n\n\tdb.user_group_names.insert(\n\t\tgroup_name="PG Section",\n\t)\n\n\tdb.user_group_names.insert(\n\t\tgroup_name="BSA",\n\t)\n\n\tdb.user_group_names.insert(\n\t\tgroup_name="BRCA",\n\t)\n\n\tdb.user_group_names.insert(\n\t\tgroup_name="BHM",\n\t)\n\n\tdb.user_group_names.insert(\n\t\tgroup_name="BSW",\n\t)\n\n\tdb.user_group_names.insert(\n\t\tgroup_name="BSP",\n\t)\n\n\n\tdb.user_group_names.insert(\n\t\tgroup_name="Electricity Department",\n\t)\n\n\n\tdb.user_group_names.insert(\n\t\tgroup_name="Plumbing Department",\n\t)\n\n\n\tdb.user_group_names.insert(\n\t\tgroup_name="Carpentry Department",\n\t)\n\n\n\tdb.user_group_names.insert(\n\t\tgroup_name="Canteen Department",\n\t)\n\n\n\tdb.user_group_names.insert(\n\t\tgroup_name="Accounts Section",\n\t)\n\n\n\tdb.user_group_names.insert(\n\t\tgroup_name="Security Department",\n\t)\n\n\n\tdb.user_group_names.insert(\n\t\tgroup_name="Accounts Section",\n\t)\n\n\n\tdb.user_group_names.insert(\n\t\tgroup_name="Computer Services Centre",\n\t)\n\n\n\tdb.user_group_names.insert(\n\t\tgroup_name="Students Counselling Service",\n\t)\n\n\n\tdb.user_group_names.insert(\n\t\tgroup_name="Aravali Hostel Admin Group",\n\t)\n\n\n\tdb.user_group_names.insert(\n\t\tgroup_name="Karakoram Hostel Admin Group",\n\t)\n\n\n\tdb.user_group_names.insert(\n\t\tgroup_name="Nilgiri Hostel Admin Group",\n\t)\n\n\n\tdb.user_group_names.insert(\n\t\tgroup_name="Jwalamukhi Hostel Admin Group",\n\t)\n\n\n\tdb.user_group_names.insert(\n\t\tgroup_name="Kumaon Hostel Admin Group",\n\t)\n\n\n\tdb.user_group_names.insert(\n\t\tgroup_name="Vindhyachal Hostel Admin Group",\n\t)\n\n\n\tdb.user_group_names.insert(\n\t\tgroup_name="Shivalik Hostel Admin Group",\n\t)\n\n\n\tdb.user_group_names.insert(\n\t\tgroup_name="Satpura Hostel Admin Group",\n\t)\n\n\n\tdb.user_group_names.insert(\n\t\tgroup_name="Zanskar Hostel Admin Group",\n\t)\n\n\n\tdb.user_group_names.insert(\n\t\tgroup_name="Girnar Hostel Admin Group",\n\t)\n\n\n\tdb.user_group_names.insert(\n\t\tgroup_name="Udaigiri Hostel Admin Group",\n\t)\n\n\n\tdb.user_group_names.insert(\n\t\tgroup_name="Kailash Hostel Admin Group",\n\t)\n\n\n\tdb.user_group_names.insert(\n\t\tgroup_name="Himadri Hostel Admin Group",\n\t)\n\n\n\tdb.user_group_names.insert(\n\t\tgroup_name="Aravali Hostel Residents Group",\n\t)\n\n\n\tdb.user_group_names.insert(\n\t\tgroup_name="Karakoram Hostel Residents Group",\n\t)\n\n\n\tdb.user_group_names.insert(\n\t\tgroup_name="Nilgiri Hostel Residents Group",\n\t)\n\n\n\tdb.user_group_names.insert(\n\t\tgroup_name="Jwalamukhi Hostel Residents Group",\n\t)\n\n\n\tdb.user_group_names.insert(\n\t\tgroup_name="Kumaon Hostel Residents Group",\n\t)\n\n\n\tdb.user_group_names.insert(\n\t\tgroup_name="Vindhyachal Hostel Residents Group",\n\t)\n\n\n\tdb.user_group_names.insert(\n\t\tgroup_name="Shivalik Hostel Residents Group",\n\t)\n\n\n\tdb.user_group_names.insert(\n\t\tgroup_name="Satpura Hostel Residents Group",\n\t)\n\n\n\tdb.user_group_names.insert(\n\t\tgroup_name="Zanskar Hostel Residents Group",\n\t)\n\n\n\tdb.user_group_names.insert(\n\t\tgroup_name="Girnar Hostel Residents Group",\n\t)\n\n\n\tdb.user_group_names.insert(\n\t\tgroup_name="Udaigiri Hostel Residents Group",\n\t)\n\n\n\tdb.user_group_names.insert(\n\t\tgroup_name="Kailash Hostel Residents Group",\n\t)\n\n\n\tdb.user_group_names.insert(\n\t\tgroup_name="Himadri Hostel Residents Group",\n\t)\n\ndef hostels_set():\n\tadmin_grp = db.user_group_names(group_name="Aravali Hostel Admin Group")\n\tres_grp = db.user_group_names(group_name="Aravali Hostel Residents Group")\n\tdb.hostels.insert(\n\t\thostel_admin_group_id=admin_grp,\n\t\thostel_residents_group_id=res_grp,\n\t\thostel_name="Aravali",\n\t)\n\n\n\tadmin_grp = db.user_group_names(group_name="Karakoram Hostel Admin Group")\n\tres_grp = db.user_group_names(group_name="Karakoram Hostel Residents Group")\n\tdb.user_group_names.insert(\n\t\thostel_admin_group_id=admin_grp,\n\t\thostel_residents_group_id=res_grp,\n\t\thostel_name="Karakoram",\n\t)\n\n\n\tadmin_grp = db.user_group_names(group_name="Nilgiri Hostel Admin Group")\n\tres_grp = db.user_group_names(group_name="Nilgiri Hostel Residents Group")\n\tdb.user_group_names.insert(\n\t\thostel_admin_group_id=admin_grp,\n\t\thostel_residents_group_id=res_grp,\n\t\thostel_name="Nilgiri",\n\t)\n\n\n\tadmin_grp = db.user_group_names(group_name="Jwalamukhi Hostel Admin Group")\n\tres_grp = db.user_group_names(group_name="Jwalamukhi Hostel Residents Group")\n\tdb.user_group_names.insert(\n\t\thostel_admin_group_id=admin_grp,\n\t\thostel_residents_group_id=res_grp,\n\t\thostel_name="Jwalamukhi",\n\t)\n\n\n\tadmin_grp = db.user_group_names(group_name="Kumaon Hostel Admin Group")\n\tres_grp = db.user_group_names(group_name="Kumaon Hostel Residents Group")\n\tdb.user_group_names.insert(\n\t\thostel_admin_group_id=admin_grp,\n\t\thostel_residents_group_id=res_grp,\n\t\thostel_name="Kumaon",\n\t)\n\n\n\tadmin_grp = db.user_group_names(group_name="Vindhyachal Hostel Admin Group")\n\tres_grp = db.user_group_names(group_name="Vindhyachal Hostel Residents Group")\n\tdb.user_group_names.insert(\n\t\thostel_admin_group_id=admin_grp,\n\t\thostel_residents_group_id=res_grp,\n\t\thostel_name="Vindhyachal",\n\t)\n\n\n\tadmin_grp = db.user_group_names(group_name="Shivalik Hostel Admin Group")\n\tres_grp = db.user_group_names(group_name="Shivalik Hostel Residents Group")\n\tdb.user_group_names.insert(\n\t\thostel_admin_group_id=admin_grp,\n\t\thostel_residents_group_id=res_grp,\n\t\thostel_name="Shivalik",\n\t)\n\n\n\tadmin_grp = db.user_group_names(group_name="Satpura Hostel Admin Group")\n\tres_grp = db.user_group_names(group_name="Satpura Hostel Residents Group")\n\tdb.user_group_names.insert(\n\t\thostel_admin_group_id=admin_grp,\n\t\thostel_residents_group_id=res_grp,\n\t\thostel_name="Satpura",\n\t)\n\n\n\tadmin_grp = db.user_group_names(group_name="Zanskar Hostel Admin Group")\n\tres_grp = db.user_group_names(group_name="Zanskar Hostel Residents Group")\n\tdb.user_group_names.insert(\n\t\thostel_admin_group_id=admin_grp,\n\t\thostel_residents_group_id=res_grp,\n\t\thostel_name="Zanskar",\n\t)\n\n\n\tadmin_grp = db.user_group_names(group_name="Girnar Hostel Admin Group")\n\tres_grp = db.user_group_names(group_name="Girnar Hostel Residents Group")\n\tdb.user_group_names.insert(\n\t\thostel_admin_group_id=admin_grp,\n\t\thostel_residents_group_id=res_grp,\n\t\thostel_name="Girnar",\n\t)\n\n\n\tadmin_grp = db.user_group_names(group_name="Udaigiri Hostel Admin Group")\n\tres_grp = db.user_group_names(group_name="Udaigiri Hostel Residents Group")\n\tdb.user_group_names.insert(\n\t\thostel_admin_group_id=admin_grp,\n\t\thostel_residents_group_id=res_grp,\n\t\thostel_name="Udaigiri",\n\t)\n\n\n\tadmin_grp = db.user_group_names(group_name="Kailash Hostel Admin Group")\n\tres_grp = db.user_group_names(group_name="Kailash Hostel Residents Group")\n\tdb.user_group_names.insert(\n\t\thostel_admin_group_id=admin_grp,\n\t\thostel_residents_group_id=res_grp,\n\t\thostel_name="Kailash",\n\t)\n\n\n\tadmin_grp = db.user_group_names(group_name="Himadri Hostel Admin Group")\n\tres_grp = db.user_group_names(group_name="Himadri Hostel Residents Group")\n\tdb.user_group_names.insert(\n\t\thostel_admin_group_id=admin_grp,\n\t\thostel_residents_group_id=res_grp,\n\t\thostel_name="Himadri",\n\t)\n\ndef reset_db():\n\tclear_all()\n\tcomplaint_levels_set()\n\tindividual_complaint_domain_set()\n\thostel_complaint_domain_set()\n\tinstitute_complaint_domain_set()\n\tgroup_names_set()\n\thostels_set()\n\nresponse._vars=response._caller(reset_db)\n'
p7
sS'snapshot'
p8
(dp9
S'exception'
p10
(dp11
S'__getslice__'
p12
S"<method-wrapper '__getslice__' of exceptions.SyntaxError object>"
p13
sS'text'
p14
S'None'
p15
sS'__str__'
p16
S"<method-wrapper '__str__' of exceptions.SyntaxError object>"
p17
sS'__reduce__'
p18
S'<built-in method __reduce__ of exceptions.SyntaxError object>'
p19
sS'__dict__'
p20
S'{}'
p21
sS'__sizeof__'
p22
S'<built-in method __sizeof__ of exceptions.SyntaxError object>'
p23
sS'__init__'
p24
S"<method-wrapper '__init__' of exceptions.SyntaxError object>"
p25
sS'__setattr__'
p26
S"<method-wrapper '__setattr__' of exceptions.SyntaxError object>"
p27
sS'__reduce_ex__'
p28
S'<built-in method __reduce_ex__ of exceptions.SyntaxError object>'
p29
sS'__new__'
p30
S'<built-in method __new__ of type object>'
p31
sS'__format__'
p32
S'<built-in method __format__ of exceptions.SyntaxError object>'
p33
sS'__class__'
p34
S"<type 'exceptions.SyntaxError'>"
p35
sS'filename'
p36
S'None'
p37
sS'lineno'
p38
S'None'
p39
sS'msg'
p40
S"'Field hostel_admin_group_id does not belong to the table'"
p41
sS'__doc__'
p42
S"'Invalid syntax.'"
p43
sS'__getitem__'
p44
S"<method-wrapper '__getitem__' of exceptions.SyntaxError object>"
p45
sS'__setstate__'
p46
S'<built-in method __setstate__ of exceptions.SyntaxError object>'
p47
sS'__getattribute__'
p48
S"<method-wrapper '__getattribute__' of exceptions.SyntaxError object>"
p49
sS'print_file_and_line'
p50
S'None'
p51
sS'args'
p52
S"('Field hostel_admin_group_id does not belong to the table',)"
p53
sS'__subclasshook__'
p54
S'<built-in method __subclasshook__ of type object>'
p55
sS'offset'
p56
S'None'
p57
sS'__unicode__'
p58
S'<built-in method __unicode__ of exceptions.SyntaxError object>'
p59
sS'__delattr__'
p60
S"<method-wrapper '__delattr__' of exceptions.SyntaxError object>"
p61
sS'__repr__'
p62
S"<method-wrapper '__repr__' of exceptions.SyntaxError object>"
p63
sS'__hash__'
p64
S"<method-wrapper '__hash__' of exceptions.SyntaxError object>"
p65
ssS'evalue'
p66
S'Field hostel_admin_group_id does not belong to the table'
p67
sS'request'
p68
cgluon.html
XML_unpickle
p69
(S's\xb1x\x00\x00<div><table><tr><td style="font-weight:bold;vertical-align:top;">ajax</td><td style="vertical-align:top;">:</td><td><div>False</div></td></tr><tr><td style="font-weight:bold;vertical-align:top;">application</td><td style="vertical-align:top;">:</td><td><div>GRS</div></td></tr><tr><td style="font-weight:bold;vertical-align:top;">args</td><td style="vertical-align:top;">:</td><td><div><table></table></div></td></tr><tr><td style="font-weight:bold;vertical-align:top;">cid</td><td style="vertical-align:top;">:</td><td><div>None</div></td></tr><tr><td style="font-weight:bold;vertical-align:top;">client</td><td style="vertical-align:top;">:</td><td><div>127.0.0.1</div></td></tr><tr><td style="font-weight:bold;vertical-align:top;">controller</td><td style="vertical-align:top;">:</td><td><div>default</div></td></tr><tr><td style="font-weight:bold;vertical-align:top;">cookies</td><td style="vertical-align:top;">:</td><td><div><table><tr><td style="font-weight:bold;vertical-align:top;">gsScrollPos</td><td style="vertical-align:top;">:</td><td><div><table><tr><td style="font-weight:bold;vertical-align:top;">comment</td><td style="vertical-align:top;">:</td><td><div></div></td></tr><tr><td style="font-weight:bold;vertical-align:top;">domain</td><td style="vertical-align:top;">:</td><td><div></div></td></tr><tr><td style="font-weight:bold;vertical-align:top;">expires</td><td style="vertical-align:top;">:</td><td><div></div></td></tr><tr><td style="font-weight:bold;vertical-align:top;">httponly</td><td style="vertical-align:top;">:</td><td><div></div></td></tr><tr><td style="font-weight:bold;vertical-align:top;">max-age</td><td style="vertical-align:top;">:</td><td><div></div></td></tr><tr><td style="font-weight:bold;vertical-align:top;">path</td><td style="vertical-align:top;">:</td><td><div></div></td></tr><tr><td style="font-weight:bold;vertical-align:top;">secure</td><td style="vertical-align:top;">:</td><td><div></div></td></tr><tr><td style="font-weight:bold;vertical-align:top;">version</td><td style="vertical-align:top;">:</td><td><div></div></td></tr></table></div></td></tr><tr><td style="font-weight:bold;vertical-align:top;">session_id_admin</td><td style="vertical-align:top;">:</td><td><div>127.0.0.1-9942ebac-63c4-4689-80e7-24e695466b80<table><tr><td style="font-weight:bold;vertical-align:top;">comment</td><td style="vertical-align:top;">:</td><td><div></div></td></tr><tr><td style="font-weight:bold;vertical-align:top;">domain</td><td style="vertical-align:top;">:</td><td><div></div></td></tr><tr><td style="font-weight:bold;vertical-align:top;">expires</td><td style="vertical-align:top;">:</td><td><div></div></td></tr><tr><td style="font-weight:bold;vertical-align:top;">httponly</td><td style="vertical-align:top;">:</td><td><div></div></td></tr><tr><td style="font-weight:bold;vertical-align:top;">max-age</td><td style="vertical-align:top;">:</td><td><div></div></td></tr><tr><td style="font-weight:bold;vertical-align:top;">path</td><td style="vertical-align:top;">:</td><td><div></div></td></tr><tr><td style="font-weight:bold;vertical-align:top;">secure</td><td style="vertical-align:top;">:</td><td><div></div></td></tr><tr><td style="font-weight:bold;vertical-align:top;">version</td><td style="vertical-align:top;">:</td><td><div></div></td></tr></table></div></td></tr><tr><td style="font-weight:bold;vertical-align:top;">session_id_grievances</td><td style="vertical-align:top;">:</td><td><div>127.0.0.1-39bee78a-8e5b-4d17-ad2b-fa503b854ff7<table><tr><td style="font-weight:bold;vertical-align:top;">comment</td><td style="vertical-align:top;">:</td><td><div></div></td></tr><tr><td style="font-weight:bold;vertical-align:top;">domain</td><td style="vertical-align:top;">:</td><td><div></div></td></tr><tr><td style="font-weight:bold;vertical-align:top;">expires</td><td style="vertical-align:top;">:</td><td><div></div></td></tr><tr><td style="font-weight:bold;vertical-align:top;">httponly</td><td style="vertical-align:top;">:</td><td><div></div></td></tr><tr><td style="font-weight:bold;vertical-align:top;">max-age</td><td style="vertical-align:top;">:</td><td><div></div></td></tr><tr><td style="font-weight:bold;vertical-align:top;">path</td><td style="vertical-align:top;">:</td><td><div></div></td></tr><tr><td style="font-weight:bold;vertical-align:top;">secure</td><td style="vertical-align:top;">:</td><td><div></div></td></tr><tr><td style="font-weight:bold;vertical-align:top;">version</td><td style="vertical-align:top;">:</td><td><div></div></td></tr></table></div></td></tr><tr><td style="font-weight:bold;vertical-align:top;">session_id_grs</td><td style="vertical-align:top;">:</td><td><div>127.0.0.1-5305278f-032a-4dd8-b9f7-62d4e68a6309<table><tr><td style="font-weight:bold;vertical-align:top;">comment</td><td style="vertical-align:top;">:</td><td><div></div></td></tr><tr><td style="font-weight:bold;vertical-align:top;">domain</td><td style="vertical-align:top;">:</td><td><div></div></td></tr><tr><td style="font-weight:bold;vertical-align:top;">expires</td><td style="vertical-align:top;">:</td><td><div></div></td></tr><tr><td style="font-weight:bold;vertical-align:top;">httponly</td><td style="vertical-align:top;">:</td><td><div></div></td></tr><tr><td style="font-weight:bold;vertical-align:top;">max-age</td><td style="vertical-align:top;">:</td><td><div></div></td></tr><tr><td style="font-weight:bold;vertical-align:top;">path</td><td style="vertical-align:top;">:</td><td><div></div></td></tr><tr><td style="font-weight:bold;vertical-align:top;">secure</td><td style="vertical-align:top;">:</td><td><div></div></td></tr><tr><td style="font-weight:bold;vertical-align:top;">version</td><td style="vertical-align:top;">:</td><td><div></div></td></tr></table></div></td></tr><tr><td style="font-weight:bold;vertical-align:top;">session_id_moodleplus</td><td style="vertical-align:top;">:</td><td><div>127.0.0.1-1da20854-4832-4b2c-a05d-3e22d05c8dea<table><tr><td style="font-weight:bold;vertical-align:top;">comment</td><td style="vertical-align:top;">:</td><td><div></div></td></tr><tr><td style="font-weight:bold;vertical-align:top;">domain</td><td style="vertical-align:top;">:</td><td><div></div></td></tr><tr><td style="font-weight:bold;vertical-align:top;">expires</td><td style="vertical-align:top;">:</td><td><div></div></td></tr><tr><td style="font-weight:bold;vertical-align:top;">httponly</td><td style="vertical-align:top;">:</td><td><div></div></td></tr><tr><td style="font-weight:bold;vertical-align:top;">max-age</td><td style="vertical-align:top;">:</td><td><div></div></td></tr><tr><td style="font-weight:bold;vertical-align:top;">path</td><td style="vertical-align:top;">:</td><td><div></div></td></tr><tr><td style="font-weight:bold;vertical-align:top;">secure</td><td style="vertical-align:top;">:</td><td><div></div></td></tr><tr><td style="font-weight:bold;vertical-align:top;">version</td><td style="vertical-align:top;">:</td><td><div></div></td></tr></table></div></td></tr><tr><td style="font-weight:bold;vertical-align:top;">session_id_sample1</td><td style="vertical-align:top;">:</td><td><div>127.0.0.1-69257c23-3e3c-4433-8daa-b0ad4e8056af<table><tr><td style="font-weight:bold;vertical-align:top;">comment</td><td style="vertical-align:top;">:</td><td><div></div></td></tr><tr><td style="font-weight:bold;vertical-align:top;">domain</td><td style="vertical-align:top;">:</td><td><div></div></td></tr><tr><td style="font-weight:bold;vertical-align:top;">expires</td><td style="vertical-align:top;">:</td><td><div></div></td></tr><tr><td style="font-weight:bold;vertical-align:top;">httponly</td><td style="vertical-align:top;">:</td><td><div></div></td></tr><tr><td style="font-weight:bold;vertical-align:top;">max-age</td><td style="vertical-align:top;">:</td><td><div></div></td></tr><tr><td style="font-weight:bold;vertical-align:top;">path</td><td style="vertical-align:top;">:</td><td><div></div></td></tr><tr><td style="font-weight:bold;vertical-align:top;">secure</td><td style="vertical-align:top;">:</td><td><div></div></td></tr><tr><td style="font-weight:bold;vertical-align:top;">version</td><td style="vertical-align:top;">:</td><td><div></div></td></tr></table></div></td></tr><tr><td style="font-weight:bold;vertical-align:top;">session_id_sample2</td><td style="vertical-align:top;">:</td><td><div>127.0.0.1-9b5af82d-a2f9-4dc5-9bb8-cace0eec1b34<table><tr><td style="font-weight:bold;vertical-align:top;">comment</td><td style="vertical-align:top;">:</td><td><div></div></td></tr><tr><td style="font-weight:bold;vertical-align:top;">domain</td><td style="vertical-align:top;">:</td><td><div></div></td></tr><tr><td style="font-weight:bold;vertical-align:top;">expires</td><td style="vertical-align:top;">:</td><td><div></div></td></tr><tr><td style="font-weight:bold;vertical-align:top;">httponly</td><td style="vertical-align:top;">:</td><td><div></div></td></tr><tr><td style="font-weight:bold;vertical-align:top;">max-age</td><td style="vertical-align:top;">:</td><td><div></div></td></tr><tr><td style="font-weight:bold;vertical-align:top;">path</td><td style="vertical-align:top;">:</td><td><div></div></td></tr><tr><td style="font-weight:bold;vertical-align:top;">secure</td><td style="vertical-align:top;">:</td><td><div></div></td></tr><tr><td style="font-weight:bold;vertical-align:top;">version</td><td style="vertical-align:top;">:</td><td><div></div></td></tr></table></div></td></tr><tr><td style="font-weight:bold;vertical-align:top;">session_id_welcome</td><td style="vertical-align:top;">:</td><td><div>127.0.0.1-86c8b36e-facc-4567-84a0-91d87d62f16e<table><tr><td style="font-weight:bold;vertical-align:top;">comment</td><td style="vertical-align:top;">:</td><td><div></div></td></tr><tr><td style="font-weight:bold;vertical-align:top;">domain</td><td style="vertical-align:top;">:</td><td><div></div></td></tr><tr><td style="font-weight:bold;vertical-align:top;">expires</td><td style="vertical-align:top;">:</td><td><div></div></td></tr><tr><td style="font-weight:bold;vertical-align:top;">httponly</td><td style="vertical-align:top;">:</td><td><div></div></td></tr><tr><td style="font-weight:bold;vertical-align:top;">max-age</td><td style="vertical-align:top;">:</td><td><div></div></td></tr><tr><td style="font-weight:bold;vertical-align:top;">path</td><td style="vertical-align:top;">:</td><td><div></div></td></tr><tr><td style="font-weight:bold;vertical-align:top;">secure</td><td style="vertical-align:top;">:</td><td><div></div></td></tr><tr><td style="font-weight:bold;vertical-align:top;">version</td><td style="vertical-align:top;">:</td><td><div></div></td></tr></table></div></td></tr></table></div></td></tr><tr><td style="font-weight:bold;vertical-align:top;">env</td><td style="vertical-align:top;">:</td><td><div><table><tr><td style="font-weight:bold;vertical-align:top;">HTTP_ACCEPT</td><td style="vertical-align:top;">:</td><td><div>text/html,application/xhtml+xml,application/xml;q=0.9,image/webp,*/*;q=0.8</div></td></tr><tr><td style="font-weight:bold;vertical-align:top;">HTTP_ACCEPT_ENCODING</td><td style="vertical-align:top;">:</td><td><div>gzip, deflate, sdch</div></td></tr><tr><td style="font-weight:bold;vertical-align:top;">HTTP_ACCEPT_LANGUAGE</td><td style="vertical-align:top;">:</td><td><div>en-US,en;q=0.8</div></td></tr><tr><td style="font-weight:bold;vertical-align:top;">HTTP_CACHE_CONTROL</td><td style="vertical-align:top;">:</td><td><div>max-age=0</div></td></tr><tr><td style="font-weight:bold;vertical-align:top;">HTTP_CONNECTION</td><td style="vertical-align:top;">:</td><td><div>keep-alive</div></td></tr><tr><td style="font-weight:bold;vertical-align:top;">HTTP_COOKIE</td><td style="vertical-align:top;">:</td><td><div>gsScrollPos=; gsScrollPos=; session_id_grievances=127.0.0.1-39bee78a-8e5b-4d17-ad2b-fa503b854ff7; session_id_moodleplus=127.0.0.1-1da20854-4832-4b2c-a05d-3e22d05c8dea; session_id_sample1=127.0.0.1-69257c23-3e3c-4433-8daa-b0ad4e8056af; _ga=GA1.1.333590026.1458794726; session_id_sample2=127.0.0.1-9b5af82d-a2f9-4dc5-9bb8-cace0eec1b34; session_id_grs=127.0.0.1-5305278f-032a-4dd8-b9f7-62d4e68a6309; session_id_welcome=127.0.0.1-86c8b36e-facc-4567-84a0-91d87d62f16e; session_id_admin=127.0.0.1-9942ebac-63c4-4689-80e7-24e695466b80</div></td></tr><tr><td style="font-weight:bold;vertical-align:top;">HTTP_HOST</td><td style="vertical-align:top;">:</td><td><div>127.0.0.1:8000</div></td></tr><tr><td style="font-weight:bold;vertical-align:top;">HTTP_UPGRADE_INSECURE_REQUESTS</td><td style="vertical-align:top;">:</td><td><div>1</div></td></tr><tr><td style="font-weight:bold;vertical-align:top;">HTTP_USER_AGENT</td><td style="vertical-align:top;">:</td><td><div>Mozilla/5.0 (X11; Linux x86_64) AppleWebKit/537.36 (KHTML, like Gecko) Ubuntu Chromium/48.0.2564.116 Chrome/48.0.2564.116 Safari/537.36</div></td></tr><tr><td style="font-weight:bold;vertical-align:top;">PATH_INFO</td><td style="vertical-align:top;">:</td><td><div>/GRS/default/reset_db.json</div></td></tr><tr><td style="font-weight:bold;vertical-align:top;">QUERY_STRING</td><td style="vertical-align:top;">:</td><td><div></div></td></tr><tr><td style="font-weight:bold;vertical-align:top;">REMOTE_ADDR</td><td style="vertical-align:top;">:</td><td><div>127.0.0.1</div></td></tr><tr><td style="font-weight:bold;vertical-align:top;">REMOTE_PORT</td><td style="vertical-align:top;">:</td><td><div>48220</div></td></tr><tr><td style="font-weight:bold;vertical-align:top;">REQUEST_METHOD</td><td style="vertical-align:top;">:</td><td><div>GET</div></td></tr><tr><td style="font-weight:bold;vertical-align:top;">SCRIPT_NAME</td><td style="vertical-align:top;">:</td><td><div></div></td></tr><tr><td style="font-weight:bold;vertical-align:top;">SERVER_NAME</td><td style="vertical-align:top;">:</td><td><div>user-Z5WAH</div></td></tr><tr><td style="font-weight:bold;vertical-align:top;">SERVER_PORT</td><td style="vertical-align:top;">:</td><td><div>8000</div></td></tr><tr><td style="font-weight:bold;vertical-align:top;">SERVER_PROTOCOL</td><td style="vertical-align:top;">:</td><td><div>HTTP/1.1</div></td></tr><tr><td style="font-weight:bold;vertical-align:top;">SERVER_SOFTWARE</td><td style="vertical-align:top;">:</td><td><div>Rocket 1.2.6</div></td></tr><tr><td style="font-weight:bold;vertical-align:top;">app_folders</td><td style="vertical-align:top;">:</td><td><div>set([&#x27;/home/user/Local Disk E/COP290/assignment2/GRS_Grievances_Resolution_System/web2py/applications/welcome/&#x27;, &#x27;/home/user/Local Disk E/COP290/assignment2/GRS_Grievances_Resolution_System/web2py/applications/GRS/&#x27;, &#x27;/home/user/Local Disk E/COP290/assignment2/GRS_Grievances_Resolution_System/web2py/applications/admin/&#x27;])</div></td></tr><tr><td style="font-weight:bold;vertical-align:top;">applications_parent</td><td style="vertical-align:top;">:</td><td><div>/home/user/Local Disk E/COP290/assignment2/GRS_Grievances_Resolution_System/web2py</div></td></tr><tr><td style="font-weight:bold;vertical-align:top;">cmd_args</td><td style="vertical-align:top;">:</td><td><div><table></table></div></td></tr><tr><td style="font-weight:bold;vertical-align:top;">cmd_options</td><td style="vertical-align:top;">:</td><td><div>&lt;Values at 0x7fd46e333a28: {&#x27;verbose&#x27;: False, &#x27;ip&#x27;: &#x27;127.0.0.1&#x27;, &#x27;debuglevel&#x27;: 30, &#x27;with_scheduler&#x27;: False, &#x27;shutdown_timeout&#x27;: 5, &#x27;taskbar&#x27;: False, &#x27;with_coverage&#x27;: False, &#x27;pid_filename&#x27;: &#x27;httpserver.pid&#x27;, &#x27;maxthreads&#x27;: None, &#x27;softcron&#x27;: False, &#x27;server_name&#x27;: &#x27;user-Z5WAH&#x27;, &#x27;bpython&#x27;: False, &#x27;nogui&#x27;: False, &#x27;port&#x27;: 8000, &#x27;print_errors&#x27;: False, &#x27;extcron&#x27;: False, &#x27;runcron&#x27;: False, &#x27;run_system_tests&#x27;: False, &#x27;test&#x27;: None, &#x27;folder&#x27;: &#x27;/home/user/Local Disk E/COP290/assignment2/GRS_Grievances_Resolution_System/web2py&#x27;, &#x27;config&#x27;: &#x27;&#x27;, &#x27;minthreads&#x27;: None, &#x27;shell&#x27;: None, &#x27;run&#x27;: &#x27;&#x27;, &#x27;log_filename&#x27;: &#x27;httpserver.log&#x27;, &#x27;profiler_dir&#x27;: None, &#x27;args&#x27;: [&#x27;&#x27;], &#x27;socket_timeout&#x27;: 5, &#x27;ssl_ca_certificate&#x27;: None, &#x27;scheduler&#x27;: None, &#x27;interfaces&#x27;: None, &#x27;ssl_private_key&#x27;: &#x27;&#x27;, &#x27;gae&#x27;: None, &#x27;password&#x27;: &#x27;******&#x27;, &#x27;request_queue_size&#x27;: 5, &#x27;ssl_certificate&#x27;: &#x27;&#x27;, &#x27;cronjob&#x27;: False, &#x27;numthreads&#x27;: None, &#x27;quiet&#x27;: False, &#x27;import_models&#x27;: False, &#x27;timeout&#x27;: 10, &#x27;plain&#x27;: False, &#x27;nobanner&#x27;: False}&gt;</div></td></tr><tr><td style="font-weight:bold;vertical-align:top;">db_sessions</td><td style="vertical-align:top;">:</td><td><div>set([])</div></td></tr><tr><td style="font-weight:bold;vertical-align:top;">debugging</td><td style="vertical-align:top;">:</td><td><div>False</div></td></tr><tr><td style="font-weight:bold;vertical-align:top;">gluon_parent</td><td style="vertical-align:top;">:</td><td><div>/home/user/Local Disk E/COP290/assignment2/GRS_Grievances_Resolution_System/web2py</div></td></tr><tr><td style="font-weight:bold;vertical-align:top;">http_accept</td><td style="vertical-align:top;">:</td><td><div>text/html,application/xhtml+xml,application/xml;q=0.9,image/webp,*/*;q=0.8</div></td></tr><tr><td style="font-weight:bold;vertical-align:top;">http_accept_encoding</td><td style="vertical-align:top;">:</td><td><div>gzip, deflate, sdch</div></td></tr><tr><td style="font-weight:bold;vertical-align:top;">http_accept_language</td><td style="vertical-align:top;">:</td><td><div>en-US,en;q=0.8</div></td></tr><tr><td style="font-weight:bold;vertical-align:top;">http_cache_control</td><td style="vertical-align:top;">:</td><td><div>max-age=0</div></td></tr><tr><td style="font-weight:bold;vertical-align:top;">http_connection</td><td style="vertical-align:top;">:</td><td><div>keep-alive</div></td></tr><tr><td style="font-weight:bold;vertical-align:top;">http_cookie</td><td style="vertical-align:top;">:</td><td><div>gsScrollPos=; gsScrollPos=; session_id_grievances=127.0.0.1-39bee78a-8e5b-4d17-ad2b-fa503b854ff7; session_id_moodleplus=127.0.0.1-1da20854-4832-4b2c-a05d-3e22d05c8dea; session_id_sample1=127.0.0.1-69257c23-3e3c-4433-8daa-b0ad4e8056af; _ga=GA1.1.333590026.1458794726; session_id_sample2=127.0.0.1-9b5af82d-a2f9-4dc5-9bb8-cace0eec1b34; session_id_grs=127.0.0.1-5305278f-032a-4dd8-b9f7-62d4e68a6309; session_id_welcome=127.0.0.1-86c8b36e-facc-4567-84a0-91d87d62f16e; session_id_admin=127.0.0.1-9942ebac-63c4-4689-80e7-24e695466b80</div></td></tr><tr><td style="font-weight:bold;vertical-align:top;">http_host</td><td style="vertical-align:top;">:</td><td><div>127.0.0.1:8000</div></td></tr><tr><td style="font-weight:bold;vertical-align:top;">http_upgrade_insecure_requests</td><td style="vertical-align:top;">:</td><td><div>1</div></td></tr><tr><td style="font-weight:bold;vertical-align:top;">http_user_agent</td><td style="vertical-align:top;">:</td><td><div>Mozilla/5.0 (X11; Linux x86_64) AppleWebKit/537.36 (KHTML, like Gecko) Ubuntu Chromium/48.0.2564.116 Chrome/48.0.2564.116 Safari/537.36</div></td></tr><tr><td style="font-weight:bold;vertical-align:top;">is_jython</td><td style="vertical-align:top;">:</td><td><div>False</div></td></tr><tr><td style="font-weight:bold;vertical-align:top;">is_pypy</td><td style="vertical-align:top;">:</td><td><div>False</div></td></tr><tr><td style="font-weight:bold;vertical-align:top;">is_source</td><td style="vertical-align:top;">:</td><td><div>True</div></td></tr><tr><td style="font-weight:bold;vertical-align:top;">local_hosts</td><td style="vertical-align:top;">:</td><td><div><table><tr><td><div>user-Z5WAH</div></td></tr><tr><td><div>::1</div></td></tr><tr><td><div>127.0.1.1</div></td></tr><tr><td><div>::ffff:127.0.0.1</div></td></tr><tr><td><div>127.0.0.1</div></td></tr></table></div></td></tr><tr><td style="font-weight:bold;vertical-align:top;">path_info</td><td style="vertical-align:top;">:</td><td><div>/GRS/default/reset_db.json</div></td></tr><tr><td style="font-weight:bold;vertical-align:top;">query_string</td><td style="vertical-align:top;">:</td><td><div></div></td></tr><tr><td style="font-weight:bold;vertical-align:top;">remote_addr</td><td style="vertical-align:top;">:</td><td><div>127.0.0.1</div></td></tr><tr><td style="font-weight:bold;vertical-align:top;">remote_port</td><td style="vertical-align:top;">:</td><td><div>48220</div></td></tr><tr><td style="font-weight:bold;vertical-align:top;">request_method</td><td style="vertical-align:top;">:</td><td><div>GET</div></td></tr><tr><td style="font-weight:bold;vertical-align:top;">request_uri</td><td style="vertical-align:top;">:</td><td><div>/GRS/default/reset_db.json</div></td></tr><tr><td style="font-weight:bold;vertical-align:top;">script_name</td><td style="vertical-align:top;">:</td><td><div></div></td></tr><tr><td style="font-weight:bold;vertical-align:top;">server_name</td><td style="vertical-align:top;">:</td><td><div>user-Z5WAH</div></td></tr><tr><td style="font-weight:bold;vertical-align:top;">server_port</td><td style="vertical-align:top;">:</td><td><div>8000</div></td></tr><tr><td style="font-weight:bold;vertical-align:top;">server_protocol</td><td style="vertical-align:top;">:</td><td><div>HTTP/1.1</div></td></tr><tr><td style="font-weight:bold;vertical-align:top;">server_software</td><td style="vertical-align:top;">:</td><td><div>Rocket 1.2.6</div></td></tr><tr><td style="font-weight:bold;vertical-align:top;">web2py_path</td><td style="vertical-align:top;">:</td><td><div>/home/user/Local Disk E/COP290/assignment2/GRS_Grievances_Resolution_System/web2py</div></td></tr><tr><td style="font-weight:bold;vertical-align:top;">web2py_version</td><td style="vertical-align:top;">:</td><td><div>2.14.2-stable+timestamp.2016.03.24.22.47.49</div></td></tr><tr><td style="font-weight:bold;vertical-align:top;">wsgi.errors</td><td style="vertical-align:top;">:</td><td><div>&lt;open file &#x27;&lt;stderr&gt;&#x27;, mode &#x27;w&#x27; at 0x7fd472c0c1e0&gt;</div></td></tr><tr><td style="font-weight:bold;vertical-align:top;">wsgi.file_wrapper</td><td style="vertical-align:top;">:</td><td><div>&lt;class wsgiref.util.FileWrapper at 0x7fd46dbddc80&gt;</div></td></tr><tr><td style="font-weight:bold;vertical-align:top;">wsgi.input</td><td style="vertical-align:top;">:</td><td><div>&lt;socket._fileobject object at 0x7fd435555750&gt;</div></td></tr><tr><td style="font-weight:bold;vertical-align:top;">wsgi.multiprocess</td><td style="vertical-align:top;">:</td><td><div>False</div></td></tr><tr><td style="font-weight:bold;vertical-align:top;">wsgi.multithread</td><td style="vertical-align:top;">:</td><td><div>True</div></td></tr><tr><td style="font-weight:bold;vertical-align:top;">wsgi.run_once</td><td style="vertical-align:top;">:</td><td><div>False</div></td></tr><tr><td style="font-weight:bold;vertical-align:top;">wsgi.url_scheme</td><td style="vertical-align:top;">:</td><td><div>http</div></td></tr><tr><td style="font-weight:bold;vertical-align:top;">wsgi.version</td><td style="vertical-align:top;">:</td><td><div><table><tr><td><div>1</div></td></tr><tr><td><div>0</div></td></tr></table></div></td></tr><tr><td style="font-weight:bold;vertical-align:top;">wsgi_errors</td><td style="vertical-align:top;">:</td><td><div>&lt;open file &#x27;&lt;stderr&gt;&#x27;, mode &#x27;w&#x27; at 0x7fd472c0c1e0&gt;</div></td></tr><tr><td style="font-weight:bold;vertical-align:top;">wsgi_file_wrapper</td><td style="vertical-align:top;">:</td><td><div>&lt;class wsgiref.util.FileWrapper at 0x7fd46dbddc80&gt;</div></td></tr><tr><td style="font-weight:bold;vertical-align:top;">wsgi_input</td><td style="vertical-align:top;">:</td><td><div>&lt;socket._fileobject object at 0x7fd435555750&gt;</div></td></tr><tr><td style="font-weight:bold;vertical-align:top;">wsgi_multiprocess</td><td style="vertical-align:top;">:</td><td><div>False</div></td></tr><tr><td style="font-weight:bold;vertical-align:top;">wsgi_multithread</td><td style="vertical-align:top;">:</td><td><div>True</div></td></tr><tr><td style="font-weight:bold;vertical-align:top;">wsgi_run_once</td><td style="vertical-align:top;">:</td><td><div>False</div></td></tr><tr><td style="font-weight:bold;vertical-align:top;">wsgi_url_scheme</td><td style="vertical-align:top;">:</td><td><div>http</div></td></tr><tr><td style="font-weight:bold;vertical-align:top;">wsgi_version</td><td style="vertical-align:top;">:</td><td><div><table><tr><td><div>1</div></td></tr><tr><td><div>0</div></td></tr></table></div></td></tr></table></div></td></tr><tr><td style="font-weight:bold;vertical-align:top;">extension</td><td style="vertical-align:top;">:</td><td><div>json</div></td></tr><tr><td style="font-weight:bold;vertical-align:top;">folder</td><td style="vertical-align:top;">:</td><td><div>/home/user/Local Disk E/COP290/assignment2/GRS_Grievances_Resolution_System/web2py/applications/GRS/</div></td></tr><tr><td style="font-weight:bold;vertical-align:top;">function</td><td style="vertical-align:top;">:</td><td><div>reset_db</div></td></tr><tr><td style="font-weight:bold;vertical-align:top;">global_settings</td><td style="vertical-align:top;">:</td><td><div><table><tr><td style="font-weight:bold;vertical-align:top;">app_folders</td><td style="vertical-align:top;">:</td><td><div>set([&#x27;/home/user/Local Disk E/COP290/assignment2/GRS_Grievances_Resolution_System/web2py/applications/welcome/&#x27;, &#x27;/home/user/Local Disk E/COP290/assignment2/GRS_Grievances_Resolution_System/web2py/applications/GRS/&#x27;, &#x27;/home/user/Local Disk E/COP290/assignment2/GRS_Grievances_Resolution_System/web2py/applications/admin/&#x27;])</div></td></tr><tr><td style="font-weight:bold;vertical-align:top;">applications_parent</td><td style="vertical-align:top;">:</td><td><div>/home/user/Local Disk E/COP290/assignment2/GRS_Grievances_Resolution_System/web2py</div></td></tr><tr><td style="font-weight:bold;vertical-align:top;">cmd_args</td><td style="vertical-align:top;">:</td><td><div><table></table></div></td></tr><tr><td style="font-weight:bold;vertical-align:top;">cmd_options</td><td style="vertical-align:top;">:</td><td><div>&lt;Values at 0x7fd46e333a28: {&#x27;verbose&#x27;: False, &#x27;ip&#x27;: &#x27;127.0.0.1&#x27;, &#x27;debuglevel&#x27;: 30, &#x27;with_scheduler&#x27;: False, &#x27;shutdown_timeout&#x27;: 5, &#x27;taskbar&#x27;: False, &#x27;with_coverage&#x27;: False, &#x27;pid_filename&#x27;: &#x27;httpserver.pid&#x27;, &#x27;maxthreads&#x27;: None, &#x27;softcron&#x27;: False, &#x27;server_name&#x27;: &#x27;user-Z5WAH&#x27;, &#x27;bpython&#x27;: False, &#x27;nogui&#x27;: False, &#x27;port&#x27;: 8000, &#x27;print_errors&#x27;: False, &#x27;extcron&#x27;: False, &#x27;runcron&#x27;: False, &#x27;run_system_tests&#x27;: False, &#x27;test&#x27;: None, &#x27;folder&#x27;: &#x27;/home/user/Local Disk E/COP290/assignment2/GRS_Grievances_Resolution_System/web2py&#x27;, &#x27;config&#x27;: &#x27;&#x27;, &#x27;minthreads&#x27;: None, &#x27;shell&#x27;: None, &#x27;run&#x27;: &#x27;&#x27;, &#x27;log_filename&#x27;: &#x27;httpserver.log&#x27;, &#x27;profiler_dir&#x27;: None, &#x27;args&#x27;: [&#x27;&#x27;], &#x27;socket_timeout&#x27;: 5, &#x27;ssl_ca_certificate&#x27;: None, &#x27;scheduler&#x27;: None, &#x27;interfaces&#x27;: None, &#x27;ssl_private_key&#x27;: &#x27;&#x27;, &#x27;gae&#x27;: None, &#x27;password&#x27;: &#x27;******&#x27;, &#x27;request_queue_size&#x27;: 5, &#x27;ssl_certificate&#x27;: &#x27;&#x27;, &#x27;cronjob&#x27;: False, &#x27;numthreads&#x27;: None, &#x27;quiet&#x27;: False, &#x27;import_models&#x27;: False, &#x27;timeout&#x27;: 10, &#x27;plain&#x27;: False, &#x27;nobanner&#x27;: False}&gt;</div></td></tr><tr><td style="font-weight:bold;vertical-align:top;">db_sessions</td><td style="vertical-align:top;">:</td><td><div>set([])</div></td></tr><tr><td style="font-weight:bold;vertical-align:top;">debugging</td><td style="vertical-align:top;">:</td><td><div>False</div></td></tr><tr><td style="font-weight:bold;vertical-align:top;">gluon_parent</td><td style="vertical-align:top;">:</td><td><div>/home/user/Local Disk E/COP290/assignment2/GRS_Grievances_Resolution_System/web2py</div></td></tr><tr><td style="font-weight:bold;vertical-align:top;">is_jython</td><td style="vertical-align:top;">:</td><td><div>False</div></td></tr><tr><td style="font-weight:bold;vertical-align:top;">is_pypy</td><td style="vertical-align:top;">:</td><td><div>False</div></td></tr><tr><td style="font-weight:bold;vertical-align:top;">is_source</td><td style="vertical-align:top;">:</td><td><div>True</div></td></tr><tr><td style="font-weight:bold;vertical-align:top;">local_hosts</td><td style="vertical-align:top;">:</td><td><div><table><tr><td><div>user-Z5WAH</div></td></tr><tr><td><div>::1</div></td></tr><tr><td><div>127.0.1.1</div></td></tr><tr><td><div>::ffff:127.0.0.1</div></td></tr><tr><td><div>127.0.0.1</div></td></tr></table></div></td></tr><tr><td style="font-weight:bold;vertical-align:top;">web2py_version</td><td style="vertical-align:top;">:</td><td><div>2.14.2-stable+timestamp.2016.03.24.22.47.49</div></td></tr></table></div></td></tr><tr><td style="font-weight:bold;vertical-align:top;">is_https</td><td style="vertical-align:top;">:</td><td><div>False</div></td></tr><tr><td style="font-weight:bold;vertical-align:top;">is_local</td><td style="vertical-align:top;">:</td><td><div>True</div></td></tr><tr><td style="font-weight:bold;vertical-align:top;">is_restful</td><td style="vertical-align:top;">:</td><td><div>False</div></td></tr><tr><td style="font-weight:bold;vertical-align:top;">is_scheduler</td><td style="vertical-align:top;">:</td><td><div>False</div></td></tr><tr><td style="font-weight:bold;vertical-align:top;">is_shell</td><td style="vertical-align:top;">:</td><td><div>False</div></td></tr><tr><td style="font-weight:bold;vertical-align:top;">now</td><td style="vertical-align:top;">:</td><td><div>datetime.datetime(2016, 3, 28, 16, 25, 34, 376488)</div></td></tr><tr><td style="font-weight:bold;vertical-align:top;">raw_args</td><td style="vertical-align:top;">:</td><td><div></div></td></tr><tr><td style="font-weight:bold;vertical-align:top;">raw_extension</td><td style="vertical-align:top;">:</td><td><div>json</div></td></tr><tr><td style="font-weight:bold;vertical-align:top;">url</td><td style="vertical-align:top;">:</td><td><div>/GRS/default/reset_db.json</div></td></tr><tr><td style="font-weight:bold;vertical-align:top;">utcnow</td><td style="vertical-align:top;">:</td><td><div>datetime.datetime(2016, 3, 28, 10, 55, 34, 376505)</div></td></tr><tr><td style="font-weight:bold;vertical-align:top;">wsgi</td><td style="vertical-align:top;">:</td><td><div>&lt;gluon.main.LazyWSGI object at 0x7fd435907ed0&gt;</div></td></tr></table></div>'
tRp70
sS'frames'
p71
(lp72
(dp73
S'file'
p74
S'/home/user/Local Disk E/COP290/assignment2/GRS_Grievances_Resolution_System/web2py/gluon/restricted.py'
p75
sS'dump'
p76
(dp77
S'environment'
p78
S"{'A': <class 'gluon.html.A'>, 'ANY_OF': <class 'gluon.validators.ANY_OF'>, 'ASSIGNJS': <function ASSIGNJS>, 'AppConfig': <function AppConfig>, 'Auth': <class 'gluon.tools.Auth'>, 'B': <class 'gluon.html.B'>, 'BEAUTIFY': <class 'gluon.html.BEAUTIFY'>, 'BODY': <class 'gluon.html.BODY'>, 'BR': <class 'gluon.html.BR'>, 'BUTTON': <class 'gluon.html.BUTTON'>, ...}"
p79
sS'ccode'
p80
S'<code object <module> at 0x7fd435864730, file "/...pplications/GRS/controllers/default.py", line 11>'
p81
ssS'lnum'
p82
I227
sS'lines'
p83
(dp84
I224
S'            ccode = code'
p85
sI225
S'        else:'
p86
sI226
S'            ccode = compile2(code, layer)'
p87
sI227
S'        exec ccode in environment'
p88
sI228
S'    except HTTP:'
p89
sI229
S'        raise'
p90
sI230
S'    except RestrictedError:'
p91
sI231
S'        # do not encapsulate (obfuscate) the original RestrictedError'
p92
sI222
S'    try:'
p93
sI223
S'        if isinstance(code, types.CodeType):'
p94
ssS'call'
p95
S"(code='# -*- coding: utf-8 -*-\\n# this file is released ...set()\\n\\nresponse._vars=response._caller(reset_db)\\n', environment={'A': <class 'gluon.html.A'>, 'ANY_OF': <class 'gluon.validators.ANY_OF'>, 'ASSIGNJS': <function ASSIGNJS>, 'AppConfig': <function AppConfig>, 'Auth': <class 'gluon.tools.Auth'>, 'B': <class 'gluon.html.B'>, 'BEAUTIFY': <class 'gluon.html.BEAUTIFY'>, 'BODY': <class 'gluon.html.BODY'>, 'BR': <class 'gluon.html.BR'>, 'BUTTON': <class 'gluon.html.BUTTON'>, ...}, layer='/home/user/Local Disk E/COP290/assignment2/GRS_G...em/web2py/applications/GRS/controllers/default.py')"
p96
sS'func'
p97
S'restricted'
p98
sa(dp99
g74
S'/home/user/Local Disk E/COP290/assignment2/GRS_Grievances_Resolution_System/web2py/applications/GRS/controllers/default.py'
p100
sg76
(dp101
sg82
I566
sg83
(dp102
I555
S'\t)'
p103
sI556
S''
sI557
S'def reset_db():'
p104
sI558
S'\tclear_all()'
p105
sI559
S'\tcomplaint_levels_set()'
p106
sI560
S'\tindividual_complaint_domain_set()'
p107
sI561
S'\thostel_complaint_domain_set()'
p108
sI562
S'\tinstitute_complaint_domain_set()'
p109
sI563
S'\tgroup_names_set()'
p110
sI564
S'\thostels_set()'
p111
ssg95
S'()'
p112
sg97
S'<module>'
p113
sa(dp114
g74
S'/home/user/Local Disk E/COP290/assignment2/GRS_Grievances_Resolution_System/web2py/gluon/globals.py'
p115
sg76
(dp116
S'self'
p117
S'undefined'
p118
sS'f'
S'<function reset_db>'
p119
ssg82
I417
sg83
(dp120
I416
S'        self._vars = None'
p121
sI417
S'        self._caller = lambda f: f()'
p122
sI418
S'        self._view_environment = None'
p123
sI419
S'        self._custom_commit = None'
p124
sI420
S'        self._custom_rollback = None'
p125
sI421
S"        self.generic_patterns = ['*']"
p126
sI412
S"        self.flash = ''            # used by the default view layout"
p127
sI413
S'        self.meta = Storage()      # used by web2py_ajax.html'
p128
sI414
S'        self.menu = []             # used by the default view layout'
p129
sI415
S'        self.files = []            # used by web2py_ajax.html'
p130
ssg95
S'(f=<function reset_db>)'
p131
sg97
S'<lambda>'
p132
sa(dp133
g74
S'/home/user/Local Disk E/COP290/assignment2/GRS_Grievances_Resolution_System/web2py/applications/GRS/controllers/default.py'
p134
sg76
(dp135
S'global hostels_set'
p136
S'<function hostels_set>'
p137
ssg82
I564
sg83
(dp138
I555
S'\t)'
p139
sI556
S''
sI557
S'def reset_db():'
p140
sI558
S'\tclear_all()'
p141
sI559
S'\tcomplaint_levels_set()'
p142
sI560
S'\tindividual_complaint_domain_set()'
p143
sI561
S'\thostel_complaint_domain_set()'
p144
sI562
S'\tinstitute_complaint_domain_set()'
p145
sI563
S'\tgroup_names_set()'
p146
sI564
S'\thostels_set()'
p147
ssg95
S'()'
p148
sg97
S'reset_db'
p149
sa(dp150
g74
S'/home/user/Local Disk E/COP290/assignment2/GRS_Grievances_Resolution_System/web2py/applications/GRS/controllers/default.py'
p151
sg76
(dp152
S'hostel_name'
p153
g118
ssg82
I455
sg83
(dp154
I450
S'\tadmin_grp = db.user_group_names(group_name="Karakoram Hostel Admin Group")'
p155
sI451
S'\tres_grp = db.user_group_names(group_name="Karakoram Hostel Residents Group")'
p156
sI452
S'\tdb.user_group_names.insert('
p157
sI453
S'\t\thostel_admin_group_id=admin_grp,'
p158
sI454
S'\t\thostel_residents_group_id=res_grp,'
p159
sI455
S'\t\thostel_name="Karakoram",'
p160
sI456
S'\t)'
p161
sI457
S''
sI458
S''
sI459
S'\tadmin_grp = db.user_group_names(group_name="Nilgiri Hostel Admin Group")'
p162
ssg95
S'()'
p163
sg97
S'hostels_set'
p164
sa(dp165
g74
S'/home/user/Local Disk E/COP290/assignment2/GRS_Grievances_Resolution_System/web2py/gluon/packages/dal/pydal/objects.py'
p166
sg76
(dp167
S'self._listify'
p168
S'<bound method Table._listify of <Table user_group_names (id, group_name)>>'
p169
sS'fields'
p170
S"{'hostel_admin_group_id': <Row {'group_members': <Set (group_members.group...L, 'group_name': 'Karakoram Hostel Admin Group'}>, 'hostel_name': 'Karakoram', 'hostel_residents_group_id': <Row {'group_members': <Set (group_members.group...group_name': 'Karakoram Hostel Residents Group'}>}"
p171
sS'self'
p172
S'<Table user_group_names (id, group_name)>'
p173
sS'ret'
p174
g118
sS'self._db._adapter'
p175
S'<pydal.adapters.sqlite.SQLiteAdapter object>'
p176
sS'self._db._adapter.insert'
p177
S'<bound method SQLiteAdapter.insert of <pydal.adapters.sqlite.SQLiteAdapter object>>'
p178
sS'self._db'
p179
S'<DAL uri="sqlite://storage.sqlite">'
p180
ssg82
I726
sg83
(dp181
I721
S'    def insert(self, **fields):'
p182
sI722
S'        fields = self._defaults(fields)'
p183
sI723
S'        self._attempt_upload(fields)'
p184
sI724
S'        if any(f(fields) for f in self._before_insert):'
p185
sI725
S'            return 0'
p186
sI726
S'        ret = self._db._adapter.insert(self, self._listify(fields))'
p187
sI727
S'        if ret and self._after_insert:'
p188
sI728
S'            fields = Row(fields)'
p189
sI729
S'            [f(fields, ret) for f in self._after_insert]'
p190
sI730
S'        return ret'
p191
ssg95
S"(self=<Table user_group_names (id, group_name)>, **fields={'hostel_admin_group_id': <Row {'group_members': <Set (group_members.group...L, 'group_name': 'Karakoram Hostel Admin Group'}>, 'hostel_name': 'Karakoram', 'hostel_residents_group_id': <Row {'group_members': <Set (group_members.group...group_name': 'Karakoram Hostel Residents Group'}>})"
p192
sg97
S'insert'
p193
sa(dp194
g74
S'/home/user/Local Disk E/COP290/assignment2/GRS_Grievances_Resolution_System/web2py/gluon/packages/dal/pydal/objects.py'
p195
sg76
(dp196
S'name'
p197
S"'hostel_admin_group_id'"
p198
ssg82
I641
sg83
(dp199
I640
S'                    raise SyntaxError('
p200
sI641
S"                        'Field %s does not belong to the table' % name)"
p201
sI642
S'            else:'
p202
sI643
S'                field = self[name]'
p203
sI644
S'                value = fields[name]'
p204
sI645
S'                if field.filter_in:'
p205
sI636
S'        # store all fields passed as input in new_fields'
p206
sI637
S'        for name in fields:'
p207
sI638
S'            if name not in self.fields:'
p208
sI639
S"                if name != 'id':"
p209
ssg95
S"(self=<Table user_group_names (id, group_name)>, fields={'hostel_admin_group_id': <Row {'group_members': <Set (group_members.group...L, 'group_name': 'Karakoram Hostel Admin Group'}>, 'hostel_name': 'Karakoram', 'hostel_residents_group_id': <Row {'group_members': <Set (group_members.group...group_name': 'Karakoram Hostel Residents Group'}>}, update=False)"
p210
sg97
S'_listify'
p211
sasS'pyver'
p212
S'Python 2.7.10: /usr/bin/python (prefix: /usr)'
p213
sS'session'
p214
g69
(S's\x1a\x00\x00\x00<div><table></table></div>'
tRp215
sS'etype'
p216
S"<type 'exceptions.SyntaxError'>"
p217
sS'date'
p218
S'Mon Mar 28 16:25:34 2016'
p219
sS'response'
p220
g69
(S's_>\x00\x00<div><table><tr><td style="font-weight:bold;vertical-align:top;">body</td><td style="vertical-align:top;">:</td><td><div>&lt;cStringIO.StringO object at 0x7fd4358e6420&gt;</div></td></tr><tr><td style="font-weight:bold;vertical-align:top;">cookies</td><td style="vertical-align:top;">:</td><td><div><table><tr><td style="font-weight:bold;vertical-align:top;">session_id_grs</td><td style="vertical-align:top;">:</td><td><div>127.0.0.1-98ac2dc5-ae09-4eb8-a0d8-773c20034b9b<table><tr><td style="font-weight:bold;vertical-align:top;">comment</td><td style="vertical-align:top;">:</td><td><div></div></td></tr><tr><td style="font-weight:bold;vertical-align:top;">domain</td><td style="vertical-align:top;">:</td><td><div></div></td></tr><tr><td style="font-weight:bold;vertical-align:top;">expires</td><td style="vertical-align:top;">:</td><td><div></div></td></tr><tr><td style="font-weight:bold;vertical-align:top;">httponly</td><td style="vertical-align:top;">:</td><td><div></div></td></tr><tr><td style="font-weight:bold;vertical-align:top;">max-age</td><td style="vertical-align:top;">:</td><td><div></div></td></tr><tr><td style="font-weight:bold;vertical-align:top;">path</td><td style="vertical-align:top;">:</td><td><div>/</div></td></tr><tr><td style="font-weight:bold;vertical-align:top;">secure</td><td style="vertical-align:top;">:</td><td><div></div></td></tr><tr><td style="font-weight:bold;vertical-align:top;">version</td><td style="vertical-align:top;">:</td><td><div></div></td></tr></table></div></td></tr></table></div></td></tr><tr><td style="font-weight:bold;vertical-align:top;">delimiters</td><td style="vertical-align:top;">:</td><td><div><table><tr><td><div>{{</div></td></tr><tr><td><div>}}</div></td></tr></table></div></td></tr><tr><td style="font-weight:bold;vertical-align:top;">files</td><td style="vertical-align:top;">:</td><td><div><table></table></div></td></tr><tr><td style="font-weight:bold;vertical-align:top;">flash</td><td style="vertical-align:top;">:</td><td><div></div></td></tr><tr><td style="font-weight:bold;vertical-align:top;">form_label_separator</td><td style="vertical-align:top;">:</td><td><div></div></td></tr><tr><td style="font-weight:bold;vertical-align:top;">formstyle</td><td style="vertical-align:top;">:</td><td><div>bootstrap3_inline</div></td></tr><tr><td style="font-weight:bold;vertical-align:top;">generic_patterns</td><td style="vertical-align:top;">:</td><td><div><table><tr><td><div>*</div></td></tr></table></div></td></tr><tr><td style="font-weight:bold;vertical-align:top;">google_analytics_id</td><td style="vertical-align:top;">:</td><td><div>None</div></td></tr><tr><td style="font-weight:bold;vertical-align:top;">headers</td><td style="vertical-align:top;">:</td><td><div><table><tr><td style="font-weight:bold;vertical-align:top;">X-Powered-By</td><td style="vertical-align:top;">:</td><td><div>web2py</div></td></tr></table></div></td></tr><tr><td style="font-weight:bold;vertical-align:top;">logo</td><td style="vertical-align:top;">:</td><td><div><a class="navbar-brand" href="http://www.web2py.com/" id="web2py-logo"><b>web<span>2</span>py</b>&trade;&nbsp;</a></div></td></tr><tr><td style="font-weight:bold;vertical-align:top;">menu</td><td style="vertical-align:top;">:</td><td><div><table><tr><td><div><table><tr><td><div>Home</div></td></tr><tr><td><div>False</div></td></tr><tr><td><div>/GRS/default/index.json</div></td></tr><tr><td><div><table></table></div></td></tr></table></div></td></tr><tr><td><div><table><tr><td><div>My Sites</div></td></tr><tr><td><div>False</div></td></tr><tr><td><div>/admin/default/site.json</div></td></tr></table></div></td></tr><tr><td><div><table><tr><td><div>This App</div></td></tr><tr><td><div>False</div></td></tr><tr><td><div>#</div></td></tr><tr><td><div><table><tr><td><div><table><tr><td><div>Design</div></td></tr><tr><td><div>False</div></td></tr><tr><td><div>/admin/default/design.json/GRS</div></td></tr></table></div></td></tr><tr><td><div><li class="divider"></li></div></td></tr><tr><td><div><table><tr><td><div>Controller</div></td></tr><tr><td><div>False</div></td></tr><tr><td><div>/admin/default/edit.json/GRS/controllers/default.py</div></td></tr></table></div></td></tr><tr><td><div><table><tr><td><div>View</div></td></tr><tr><td><div>False</div></td></tr><tr><td><div>/admin/default/edit.json/GRS/views/default/reset_db.json</div></td></tr></table></div></td></tr><tr><td><div><table><tr><td><div>DB Model</div></td></tr><tr><td><div>False</div></td></tr><tr><td><div>/admin/default/edit.json/GRS/models/db.py</div></td></tr></table></div></td></tr><tr><td><div><table><tr><td><div>Menu Model</div></td></tr><tr><td><div>False</div></td></tr><tr><td><div>/admin/default/edit.json/GRS/models/menu.py</div></td></tr></table></div></td></tr><tr><td><div><table><tr><td><div>Config.ini</div></td></tr><tr><td><div>False</div></td></tr><tr><td><div>/admin/default/edit.json/GRS/private/appconfig.ini</div></td></tr></table></div></td></tr><tr><td><div><table><tr><td><div>Layout</div></td></tr><tr><td><div>False</div></td></tr><tr><td><div>/admin/default/edit.json/GRS/views/layout.html</div></td></tr></table></div></td></tr><tr><td><div><table><tr><td><div>Stylesheet</div></td></tr><tr><td><div>False</div></td></tr><tr><td><div>/admin/default/edit.json/GRS/static/css/web2py-bootstrap3.css</div></td></tr></table></div></td></tr><tr><td><div><table><tr><td><div>Database</div></td></tr><tr><td><div>False</div></td></tr><tr><td><div>/GRS/appadmin/index.json</div></td></tr></table></div></td></tr><tr><td><div><table><tr><td><div>Errors</div></td></tr><tr><td><div>False</div></td></tr><tr><td><div>/admin/default/errors.json/GRS</div></td></tr></table></div></td></tr><tr><td><div><table><tr><td><div>About</div></td></tr><tr><td><div>False</div></td></tr><tr><td><div>/admin/default/about.json/GRS</div></td></tr></table></div></td></tr></table></div></td></tr></table></div></td></tr><tr><td><div><table><tr><td><div>web2py.com</div></td></tr><tr><td><div>False</div></td></tr><tr><td><div>#</div></td></tr><tr><td><div><table><tr><td><div><table><tr><td><div>Download</div></td></tr><tr><td><div>False</div></td></tr><tr><td><div>http://www.web2py.com/examples/default/download</div></td></tr></table></div></td></tr><tr><td><div><table><tr><td><div>Support</div></td></tr><tr><td><div>False</div></td></tr><tr><td><div>http://www.web2py.com/examples/default/support</div></td></tr></table></div></td></tr><tr><td><div><table><tr><td><div>Demo</div></td></tr><tr><td><div>False</div></td></tr><tr><td><div>http://web2py.com/demo_admin</div></td></tr></table></div></td></tr><tr><td><div><table><tr><td><div>Quick Examples</div></td></tr><tr><td><div>False</div></td></tr><tr><td><div>http://web2py.com/examples/default/examples</div></td></tr></table></div></td></tr><tr><td><div><table><tr><td><div>FAQ</div></td></tr><tr><td><div>False</div></td></tr><tr><td><div>http://web2py.com/AlterEgo</div></td></tr></table></div></td></tr><tr><td><div><table><tr><td><div>Videos</div></td></tr><tr><td><div>False</div></td></tr><tr><td><div>http://www.web2py.com/examples/default/videos/</div></td></tr></table></div></td></tr><tr><td><div><table><tr><td><div>Free Applications</div></td></tr><tr><td><div>False</div></td></tr><tr><td><div>http://web2py.com/appliances</div></td></tr></table></div></td></tr><tr><td><div><table><tr><td><div>Plugins</div></td></tr><tr><td><div>False</div></td></tr><tr><td><div>http://web2py.com/plugins</div></td></tr></table></div></td></tr><tr><td><div><table><tr><td><div>Recipes</div></td></tr><tr><td><div>False</div></td></tr><tr><td><div>http://web2pyslices.com/</div></td></tr></table></div></td></tr></table></div></td></tr></table></div></td></tr><tr><td><div><table><tr><td><div>Documentation</div></td></tr><tr><td><div>False</div></td></tr><tr><td><div>#</div></td></tr><tr><td><div><table><tr><td><div><table><tr><td><div>Online book</div></td></tr><tr><td><div>False</div></td></tr><tr><td><div>http://www.web2py.com/book</div></td></tr></table></div></td></tr><tr><td><div><li class="divider"></li></div></td></tr><tr><td><div><table><tr><td><div>Preface</div></td></tr><tr><td><div>False</div></td></tr><tr><td><div>http://www.web2py.com/book/default/chapter/00</div></td></tr></table></div></td></tr><tr><td><div><table><tr><td><div>Introduction</div></td></tr><tr><td><div>False</div></td></tr><tr><td><div>http://www.web2py.com/book/default/chapter/01</div></td></tr></table></div></td></tr><tr><td><div><table><tr><td><div>Python</div></td></tr><tr><td><div>False</div></td></tr><tr><td><div>http://www.web2py.com/book/default/chapter/02</div></td></tr></table></div></td></tr><tr><td><div><table><tr><td><div>Overview</div></td></tr><tr><td><div>False</div></td></tr><tr><td><div>http://www.web2py.com/book/default/chapter/03</div></td></tr></table></div></td></tr><tr><td><div><table><tr><td><div>The Core</div></td></tr><tr><td><div>False</div></td></tr><tr><td><div>http://www.web2py.com/book/default/chapter/04</div></td></tr></table></div></td></tr><tr><td><div><table><tr><td><div>The Views</div></td></tr><tr><td><div>False</div></td></tr><tr><td><div>http://www.web2py.com/book/default/chapter/05</div></td></tr></table></div></td></tr><tr><td><div><table><tr><td><div>Database</div></td></tr><tr><td><div>False</div></td></tr><tr><td><div>http://www.web2py.com/book/default/chapter/06</div></td></tr></table></div></td></tr><tr><td><div><table><tr><td><div>Forms and Validators</div></td></tr><tr><td><div>False</div></td></tr><tr><td><div>http://www.web2py.com/book/default/chapter/07</div></td></tr></table></div></td></tr><tr><td><div><table><tr><td><div>Email and SMS</div></td></tr><tr><td><div>False</div></td></tr><tr><td><div>http://www.web2py.com/book/default/chapter/08</div></td></tr></table></div></td></tr><tr><td><div><table><tr><td><div>Access Control</div></td></tr><tr><td><div>False</div></td></tr><tr><td><div>http://www.web2py.com/book/default/chapter/09</div></td></tr></table></div></td></tr><tr><td><div><table><tr><td><div>Services</div></td></tr><tr><td><div>False</div></td></tr><tr><td><div>http://www.web2py.com/book/default/chapter/10</div></td></tr></table></div></td></tr><tr><td><div><table><tr><td><div>Ajax Recipes</div></td></tr><tr><td><div>False</div></td></tr><tr><td><div>http://www.web2py.com/book/default/chapter/11</div></td></tr></table></div></td></tr><tr><td><div><table><tr><td><div>Components and Plugins</div></td></tr><tr><td><div>False</div></td></tr><tr><td><div>http://www.web2py.com/book/default/chapter/12</div></td></tr></table></div></td></tr><tr><td><div><table><tr><td><div>Deployment Recipes</div></td></tr><tr><td><div>False</div></td></tr><tr><td><div>http://www.web2py.com/book/default/chapter/13</div></td></tr></table></div></td></tr><tr><td><div><table><tr><td><div>Other Recipes</div></td></tr><tr><td><div>False</div></td></tr><tr><td><div>http://www.web2py.com/book/default/chapter/14</div></td></tr></table></div></td></tr><tr><td><div><table><tr><td><div>Helping web2py</div></td></tr><tr><td><div>False</div></td></tr><tr><td><div>http://www.web2py.com/book/default/chapter/15</div></td></tr></table></div></td></tr><tr><td><div><table><tr><td><div>Buy web2py\'s book</div></td></tr><tr><td><div>False</div></td></tr><tr><td><div>http://stores.lulu.com/web2py</div></td></tr></table></div></td></tr></table></div></td></tr></table></div></td></tr><tr><td><div><table><tr><td><div>Community</div></td></tr><tr><td><div>False</div></td></tr><tr><td><div>None</div></td></tr><tr><td><div><table><tr><td><div><table><tr><td><div>Groups</div></td></tr><tr><td><div>False</div></td></tr><tr><td><div>http://www.web2py.com/examples/default/usergroups</div></td></tr></table></div></td></tr><tr><td><div><table><tr><td><div>Twitter</div></td></tr><tr><td><div>False</div></td></tr><tr><td><div>http://twitter.com/web2py</div></td></tr></table></div></td></tr><tr><td><div><table><tr><td><div>Live Chat</div></td></tr><tr><td><div>False</div></td></tr><tr><td><div>http://webchat.freenode.net/?channels=web2py</div></td></tr></table></div></td></tr></table></div></td></tr></table></div></td></tr></table></div></td></tr><tr><td style="font-weight:bold;vertical-align:top;">meta</td><td style="vertical-align:top;">:</td><td><div><table><tr><td style="font-weight:bold;vertical-align:top;">author</td><td style="vertical-align:top;">:</td><td><div>Your Name &lt;you@example.com&gt;</div></td></tr><tr><td style="font-weight:bold;vertical-align:top;">description</td><td style="vertical-align:top;">:</td><td><div>a cool new app</div></td></tr><tr><td style="font-weight:bold;vertical-align:top;">generator</td><td style="vertical-align:top;">:</td><td><div>Web2py Web Framework</div></td></tr><tr><td style="font-weight:bold;vertical-align:top;">keywords</td><td style="vertical-align:top;">:</td><td><div><table><tr><td><div>web2py</div></td></tr><tr><td><div>python</div></td></tr><tr><td><div>framework</div></td></tr></table></div></td></tr></table></div></td></tr><tr><td style="font-weight:bold;vertical-align:top;">models_to_run</td><td style="vertical-align:top;">:</td><td><div><table><tr><td><div>^\\w+\\.py$</div></td></tr><tr><td><div>^default/\\w+\\.py$</div></td></tr><tr><td><div>^default/reset_db/\\w+\\.py$</div></td></tr></table></div></td></tr><tr><td style="font-weight:bold;vertical-align:top;">postprocessing</td><td style="vertical-align:top;">:</td><td><div><table></table></div></td></tr><tr><td style="font-weight:bold;vertical-align:top;">session_client</td><td style="vertical-align:top;">:</td><td><div>127.0.0.1</div></td></tr><tr><td style="font-weight:bold;vertical-align:top;">session_cookie_compression_level</td><td style="vertical-align:top;">:</td><td><div>None</div></td></tr><tr><td style="font-weight:bold;vertical-align:top;">session_cookie_expires</td><td style="vertical-align:top;">:</td><td><div>None</div></td></tr><tr><td style="font-weight:bold;vertical-align:top;">session_data_name</td><td style="vertical-align:top;">:</td><td><div>session_data_grs</div></td></tr><tr><td style="font-weight:bold;vertical-align:top;">session_file</td><td style="vertical-align:top;">:</td><td><div>None</div></td></tr><tr><td style="font-weight:bold;vertical-align:top;">session_filename</td><td style="vertical-align:top;">:</td><td><div>/home/user/Local Disk E/COP290/assignment2/GRS_Grievances_Resolution_System/web2py/applications/GRS/sessions/127.0.0.1-98ac2dc5-ae09-4eb8-a0d8-773c20034b9b</div></td></tr><tr><td style="font-weight:bold;vertical-align:top;">session_hash</td><td style="vertical-align:top;">:</td><td><div>c0762cbf4baf7f9af97c051e7fcb8083</div></td></tr><tr><td style="font-weight:bold;vertical-align:top;">session_id</td><td style="vertical-align:top;">:</td><td><div>127.0.0.1-98ac2dc5-ae09-4eb8-a0d8-773c20034b9b</div></td></tr><tr><td style="font-weight:bold;vertical-align:top;">session_id_name</td><td style="vertical-align:top;">:</td><td><div>session_id_grs</div></td></tr><tr><td style="font-weight:bold;vertical-align:top;">session_masterapp</td><td style="vertical-align:top;">:</td><td><div>GRS</div></td></tr><tr><td style="font-weight:bold;vertical-align:top;">session_new</td><td style="vertical-align:top;">:</td><td><div>True</div></td></tr><tr><td style="font-weight:bold;vertical-align:top;">session_storage_type</td><td style="vertical-align:top;">:</td><td><div>file</div></td></tr><tr><td style="font-weight:bold;vertical-align:top;">status</td><td style="vertical-align:top;">:</td><td><div>200</div></td></tr><tr><td style="font-weight:bold;vertical-align:top;">subtitle</td><td style="vertical-align:top;">:</td><td><div></div></td></tr><tr><td style="font-weight:bold;vertical-align:top;">title</td><td style="vertical-align:top;">:</td><td><div>Grs</div></td></tr><tr><td style="font-weight:bold;vertical-align:top;">view</td><td style="vertical-align:top;">:</td><td><div>default/reset_db.json</div></td></tr></table></div>'
tRp221
sS'locals'
p222
(dp223
S'fields'
p224
S"{'hostel_admin_group_id': <Row {'group_members': <Set (group_members.group...L, 'group_name': 'Karakoram Hostel Admin Group'}>, 'hostel_name': 'Karakoram', 'hostel_residents_group_id': <Row {'group_members': <Set (group_members.group...group_name': 'Karakoram Hostel Residents Group'}>}"
p225
sS'self'
p226
S'<Table user_group_names (id, group_name)>'
p227
sS'new_fields'
p228
g21
sS'name'
p229
S"'hostel_admin_group_id'"
p230
sS'update'
p231
S'False'
p232
sssS'traceback'
p233
S'Traceback (most recent call last):\n  File "/home/user/Local Disk E/COP290/assignment2/GRS_Grievances_Resolution_System/web2py/gluon/restricted.py", line 227, in restricted\n    exec ccode in environment\n  File "/home/user/Local Disk E/COP290/assignment2/GRS_Grievances_Resolution_System/web2py/applications/GRS/controllers/default.py", line 566, in <module>\n  File "/home/user/Local Disk E/COP290/assignment2/GRS_Grievances_Resolution_System/web2py/gluon/globals.py", line 417, in <lambda>\n    self._caller = lambda f: f()\n  File "/home/user/Local Disk E/COP290/assignment2/GRS_Grievances_Resolution_System/web2py/applications/GRS/controllers/default.py", line 564, in reset_db\n    hostels_set()\n  File "/home/user/Local Disk E/COP290/assignment2/GRS_Grievances_Resolution_System/web2py/applications/GRS/controllers/default.py", line 455, in hostels_set\n    hostel_name="Karakoram",\n  File "/home/user/Local Disk E/COP290/assignment2/GRS_Grievances_Resolution_System/web2py/gluon/packages/dal/pydal/objects.py", line 726, in insert\n    ret = self._db._adapter.insert(self, self._listify(fields))\n  File "/home/user/Local Disk E/COP290/assignment2/GRS_Grievances_Resolution_System/web2py/gluon/packages/dal/pydal/objects.py", line 641, in _listify\n    \'Field %s does not belong to the table\' % name)\nSyntaxError: Field hostel_admin_group_id does not belong to the table\n'
p234
s.